
code.elf:     file format elf32-littleriscv


Disassembly of section .text:

00001000 <_start>:
    1000:	0100006f          	j	1010 <_init>

00001004 <_end>:
    1004:	0000006f          	j	1004 <_end>

00001008 <_call_main>:
    1008:	2d8050ef          	jal	62e0 <main>
    100c:	ff9ff06f          	j	1004 <_end>

00001010 <_init>:
    1010:	00000517          	auipc	a0,0x0
    1014:	09850513          	add	a0,a0,152 # 10a8 <trap_vector>
    1018:	30551073          	csrw	mtvec,a0
    101c:	80020137          	lui	sp,0x80020
    1020:	19d000ef          	jal	19bc <_load>
    1024:	00000093          	li	ra,0
    1028:	00000113          	li	sp,0
    102c:	00000193          	li	gp,0
    1030:	00000213          	li	tp,0
    1034:	00000293          	li	t0,0
    1038:	00000313          	li	t1,0
    103c:	00000393          	li	t2,0
    1040:	00000413          	li	s0,0
    1044:	00000493          	li	s1,0
    1048:	00000513          	li	a0,0
    104c:	00000593          	li	a1,0
    1050:	00000613          	li	a2,0
    1054:	00000693          	li	a3,0
    1058:	00000713          	li	a4,0
    105c:	00000793          	li	a5,0
    1060:	00000813          	li	a6,0
    1064:	00000893          	li	a7,0
    1068:	00000913          	li	s2,0
    106c:	00000993          	li	s3,0
    1070:	00000a13          	li	s4,0
    1074:	00000a93          	li	s5,0
    1078:	00000b13          	li	s6,0
    107c:	00000b93          	li	s7,0
    1080:	00000c13          	li	s8,0
    1084:	00000c93          	li	s9,0
    1088:	00000d13          	li	s10,0
    108c:	00000d93          	li	s11,0
    1090:	00000e13          	li	t3,0
    1094:	00000e93          	li	t4,0
    1098:	00000f13          	li	t5,0
    109c:	00000f93          	li	t6,0
    10a0:	80020137          	lui	sp,0x80020
    10a4:	f65ff06f          	j	1008 <_call_main>

000010a8 <trap_vector>:
    10a8:	f8010113          	add	sp,sp,-128 # 8001ff80 <__bss_end+0x1fbe0>
    10ac:	00012023          	sw	zero,0(sp)
    10b0:	00112223          	sw	ra,4(sp)
    10b4:	00212423          	sw	sp,8(sp)
    10b8:	00312623          	sw	gp,12(sp)
    10bc:	00412823          	sw	tp,16(sp)
    10c0:	00512a23          	sw	t0,20(sp)
    10c4:	00612c23          	sw	t1,24(sp)
    10c8:	00712e23          	sw	t2,28(sp)
    10cc:	02812023          	sw	s0,32(sp)
    10d0:	02912223          	sw	s1,36(sp)
    10d4:	02a12423          	sw	a0,40(sp)
    10d8:	02b12623          	sw	a1,44(sp)
    10dc:	02c12823          	sw	a2,48(sp)
    10e0:	02d12a23          	sw	a3,52(sp)
    10e4:	02e12c23          	sw	a4,56(sp)
    10e8:	02f12e23          	sw	a5,60(sp)
    10ec:	05012023          	sw	a6,64(sp)
    10f0:	05112223          	sw	a7,68(sp)
    10f4:	05212423          	sw	s2,72(sp)
    10f8:	05312623          	sw	s3,76(sp)
    10fc:	05412823          	sw	s4,80(sp)
    1100:	05512a23          	sw	s5,84(sp)
    1104:	05612c23          	sw	s6,88(sp)
    1108:	05712e23          	sw	s7,92(sp)
    110c:	07812023          	sw	s8,96(sp)
    1110:	07912223          	sw	s9,100(sp)
    1114:	07a12423          	sw	s10,104(sp)
    1118:	07b12623          	sw	s11,108(sp)
    111c:	07c12823          	sw	t3,112(sp)
    1120:	07d12a23          	sw	t4,116(sp)
    1124:	07e12c23          	sw	t5,120(sp)
    1128:	07f12e23          	sw	t6,124(sp)
    112c:	7ffff517          	auipc	a0,0x7ffff
    1130:	ed450513          	add	a0,a0,-300 # 80000000 <__data_start>
    1134:	00050293          	mv	t0,a0
    1138:	40002337          	lui	t1,0x40002
    113c:	0002c503          	lbu	a0,0(t0)
    1140:	00128293          	add	t0,t0,1
    1144:	00050663          	beqz	a0,1150 <trap_vector+0xa8>
    1148:	00a32023          	sw	a0,0(t1) # 40002000 <__rodata_end+0x3fffa629>
    114c:	ff1ff06f          	j	113c <trap_vector+0x94>
    1150:	7ffff517          	auipc	a0,0x7ffff
    1154:	ed050513          	add	a0,a0,-304 # 80000020 <__data_start+0x20>
    1158:	00050293          	mv	t0,a0
    115c:	40002337          	lui	t1,0x40002
    1160:	0002c503          	lbu	a0,0(t0)
    1164:	00128293          	add	t0,t0,1
    1168:	00050663          	beqz	a0,1174 <trap_vector+0xcc>
    116c:	00a32023          	sw	a0,0(t1) # 40002000 <__rodata_end+0x3fffa629>
    1170:	ff1ff06f          	j	1160 <trap_vector+0xb8>
    1174:	34202573          	csrr	a0,mcause
    1178:	7ffff297          	auipc	t0,0x7ffff
    117c:	eb828293          	add	t0,t0,-328 # 80000030 <__data_start+0x30>
    1180:	0012a023          	sw	ra,0(t0)
    1184:	00a2a223          	sw	a0,4(t0)
    1188:	00b2a423          	sw	a1,8(t0)
    118c:	00050513          	mv	a0,a0
    1190:	00050593          	mv	a1,a0
    1194:	01855513          	srl	a0,a0,0x18
    1198:	00050513          	mv	a0,a0
    119c:	00050313          	mv	t1,a0
    11a0:	00435513          	srl	a0,t1,0x4
    11a4:	00f57513          	and	a0,a0,15
    11a8:	7ffff297          	auipc	t0,0x7ffff
    11ac:	e9828293          	add	t0,t0,-360 # 80000040 <__data_start+0x40>
    11b0:	00550533          	add	a0,a0,t0
    11b4:	00054503          	lbu	a0,0(a0)
    11b8:	400022b7          	lui	t0,0x40002
    11bc:	00a2a023          	sw	a0,0(t0) # 40002000 <__rodata_end+0x3fffa629>
    11c0:	00f37513          	and	a0,t1,15
    11c4:	7ffff297          	auipc	t0,0x7ffff
    11c8:	e7c28293          	add	t0,t0,-388 # 80000040 <__data_start+0x40>
    11cc:	00550533          	add	a0,a0,t0
    11d0:	00054503          	lbu	a0,0(a0)
    11d4:	400022b7          	lui	t0,0x40002
    11d8:	00a2a023          	sw	a0,0(t0) # 40002000 <__rodata_end+0x3fffa629>
    11dc:	00058513          	mv	a0,a1
    11e0:	01055513          	srl	a0,a0,0x10
    11e4:	00050513          	mv	a0,a0
    11e8:	00050313          	mv	t1,a0
    11ec:	00435513          	srl	a0,t1,0x4
    11f0:	00f57513          	and	a0,a0,15
    11f4:	7ffff297          	auipc	t0,0x7ffff
    11f8:	e6c28293          	add	t0,t0,-404 # 80000060 <__data_start+0x60>
    11fc:	00550533          	add	a0,a0,t0
    1200:	00054503          	lbu	a0,0(a0)
    1204:	400022b7          	lui	t0,0x40002
    1208:	00a2a023          	sw	a0,0(t0) # 40002000 <__rodata_end+0x3fffa629>
    120c:	00f37513          	and	a0,t1,15
    1210:	7ffff297          	auipc	t0,0x7ffff
    1214:	e5028293          	add	t0,t0,-432 # 80000060 <__data_start+0x60>
    1218:	00550533          	add	a0,a0,t0
    121c:	00054503          	lbu	a0,0(a0)
    1220:	400022b7          	lui	t0,0x40002
    1224:	00a2a023          	sw	a0,0(t0) # 40002000 <__rodata_end+0x3fffa629>
    1228:	00058513          	mv	a0,a1
    122c:	00855513          	srl	a0,a0,0x8
    1230:	00050513          	mv	a0,a0
    1234:	00050313          	mv	t1,a0
    1238:	00435513          	srl	a0,t1,0x4
    123c:	00f57513          	and	a0,a0,15
    1240:	7ffff297          	auipc	t0,0x7ffff
    1244:	e4028293          	add	t0,t0,-448 # 80000080 <__data_start+0x80>
    1248:	00550533          	add	a0,a0,t0
    124c:	00054503          	lbu	a0,0(a0)
    1250:	400022b7          	lui	t0,0x40002
    1254:	00a2a023          	sw	a0,0(t0) # 40002000 <__rodata_end+0x3fffa629>
    1258:	00f37513          	and	a0,t1,15
    125c:	7ffff297          	auipc	t0,0x7ffff
    1260:	e2428293          	add	t0,t0,-476 # 80000080 <__data_start+0x80>
    1264:	00550533          	add	a0,a0,t0
    1268:	00054503          	lbu	a0,0(a0)
    126c:	400022b7          	lui	t0,0x40002
    1270:	00a2a023          	sw	a0,0(t0) # 40002000 <__rodata_end+0x3fffa629>
    1274:	00058513          	mv	a0,a1
    1278:	00050513          	mv	a0,a0
    127c:	00050313          	mv	t1,a0
    1280:	00435513          	srl	a0,t1,0x4
    1284:	00f57513          	and	a0,a0,15
    1288:	7ffff297          	auipc	t0,0x7ffff
    128c:	e1828293          	add	t0,t0,-488 # 800000a0 <__data_start+0xa0>
    1290:	00550533          	add	a0,a0,t0
    1294:	00054503          	lbu	a0,0(a0)
    1298:	400022b7          	lui	t0,0x40002
    129c:	00a2a023          	sw	a0,0(t0) # 40002000 <__rodata_end+0x3fffa629>
    12a0:	00f37513          	and	a0,t1,15
    12a4:	7ffff297          	auipc	t0,0x7ffff
    12a8:	dfc28293          	add	t0,t0,-516 # 800000a0 <__data_start+0xa0>
    12ac:	00550533          	add	a0,a0,t0
    12b0:	00054503          	lbu	a0,0(a0)
    12b4:	400022b7          	lui	t0,0x40002
    12b8:	00a2a023          	sw	a0,0(t0) # 40002000 <__rodata_end+0x3fffa629>
    12bc:	7ffff297          	auipc	t0,0x7ffff
    12c0:	de428293          	add	t0,t0,-540 # 800000a0 <__data_start+0xa0>
    12c4:	0002a083          	lw	ra,0(t0)
    12c8:	0042a503          	lw	a0,4(t0)
    12cc:	0082a583          	lw	a1,8(t0)
    12d0:	7ffff517          	auipc	a0,0x7ffff
    12d4:	df050513          	add	a0,a0,-528 # 800000c0 <__data_start+0xc0>
    12d8:	00050293          	mv	t0,a0
    12dc:	40002337          	lui	t1,0x40002
    12e0:	0002c503          	lbu	a0,0(t0)
    12e4:	00128293          	add	t0,t0,1
    12e8:	00050663          	beqz	a0,12f4 <trap_vector+0x24c>
    12ec:	00a32023          	sw	a0,0(t1) # 40002000 <__rodata_end+0x3fffa629>
    12f0:	ff1ff06f          	j	12e0 <trap_vector+0x238>
    12f4:	34102573          	csrr	a0,mepc
    12f8:	7ffff297          	auipc	t0,0x7ffff
    12fc:	dd828293          	add	t0,t0,-552 # 800000d0 <__data_start+0xd0>
    1300:	0012a023          	sw	ra,0(t0)
    1304:	00a2a223          	sw	a0,4(t0)
    1308:	00b2a423          	sw	a1,8(t0)
    130c:	00050513          	mv	a0,a0
    1310:	00050593          	mv	a1,a0
    1314:	01855513          	srl	a0,a0,0x18
    1318:	00050513          	mv	a0,a0
    131c:	00050313          	mv	t1,a0
    1320:	00435513          	srl	a0,t1,0x4
    1324:	00f57513          	and	a0,a0,15
    1328:	7ffff297          	auipc	t0,0x7ffff
    132c:	db828293          	add	t0,t0,-584 # 800000e0 <__data_start+0xe0>
    1330:	00550533          	add	a0,a0,t0
    1334:	00054503          	lbu	a0,0(a0)
    1338:	400022b7          	lui	t0,0x40002
    133c:	00a2a023          	sw	a0,0(t0) # 40002000 <__rodata_end+0x3fffa629>
    1340:	00f37513          	and	a0,t1,15
    1344:	7ffff297          	auipc	t0,0x7ffff
    1348:	d9c28293          	add	t0,t0,-612 # 800000e0 <__data_start+0xe0>
    134c:	00550533          	add	a0,a0,t0
    1350:	00054503          	lbu	a0,0(a0)
    1354:	400022b7          	lui	t0,0x40002
    1358:	00a2a023          	sw	a0,0(t0) # 40002000 <__rodata_end+0x3fffa629>
    135c:	00058513          	mv	a0,a1
    1360:	01055513          	srl	a0,a0,0x10
    1364:	00050513          	mv	a0,a0
    1368:	00050313          	mv	t1,a0
    136c:	00435513          	srl	a0,t1,0x4
    1370:	00f57513          	and	a0,a0,15
    1374:	7ffff297          	auipc	t0,0x7ffff
    1378:	d8c28293          	add	t0,t0,-628 # 80000100 <__data_start+0x100>
    137c:	00550533          	add	a0,a0,t0
    1380:	00054503          	lbu	a0,0(a0)
    1384:	400022b7          	lui	t0,0x40002
    1388:	00a2a023          	sw	a0,0(t0) # 40002000 <__rodata_end+0x3fffa629>
    138c:	00f37513          	and	a0,t1,15
    1390:	7ffff297          	auipc	t0,0x7ffff
    1394:	d7028293          	add	t0,t0,-656 # 80000100 <__data_start+0x100>
    1398:	00550533          	add	a0,a0,t0
    139c:	00054503          	lbu	a0,0(a0)
    13a0:	400022b7          	lui	t0,0x40002
    13a4:	00a2a023          	sw	a0,0(t0) # 40002000 <__rodata_end+0x3fffa629>
    13a8:	00058513          	mv	a0,a1
    13ac:	00855513          	srl	a0,a0,0x8
    13b0:	00050513          	mv	a0,a0
    13b4:	00050313          	mv	t1,a0
    13b8:	00435513          	srl	a0,t1,0x4
    13bc:	00f57513          	and	a0,a0,15
    13c0:	7ffff297          	auipc	t0,0x7ffff
    13c4:	d6028293          	add	t0,t0,-672 # 80000120 <__data_start+0x120>
    13c8:	00550533          	add	a0,a0,t0
    13cc:	00054503          	lbu	a0,0(a0)
    13d0:	400022b7          	lui	t0,0x40002
    13d4:	00a2a023          	sw	a0,0(t0) # 40002000 <__rodata_end+0x3fffa629>
    13d8:	00f37513          	and	a0,t1,15
    13dc:	7ffff297          	auipc	t0,0x7ffff
    13e0:	d4428293          	add	t0,t0,-700 # 80000120 <__data_start+0x120>
    13e4:	00550533          	add	a0,a0,t0
    13e8:	00054503          	lbu	a0,0(a0)
    13ec:	400022b7          	lui	t0,0x40002
    13f0:	00a2a023          	sw	a0,0(t0) # 40002000 <__rodata_end+0x3fffa629>
    13f4:	00058513          	mv	a0,a1
    13f8:	00050513          	mv	a0,a0
    13fc:	00050313          	mv	t1,a0
    1400:	00435513          	srl	a0,t1,0x4
    1404:	00f57513          	and	a0,a0,15
    1408:	7ffff297          	auipc	t0,0x7ffff
    140c:	d3828293          	add	t0,t0,-712 # 80000140 <__data_start+0x140>
    1410:	00550533          	add	a0,a0,t0
    1414:	00054503          	lbu	a0,0(a0)
    1418:	400022b7          	lui	t0,0x40002
    141c:	00a2a023          	sw	a0,0(t0) # 40002000 <__rodata_end+0x3fffa629>
    1420:	00f37513          	and	a0,t1,15
    1424:	7ffff297          	auipc	t0,0x7ffff
    1428:	d1c28293          	add	t0,t0,-740 # 80000140 <__data_start+0x140>
    142c:	00550533          	add	a0,a0,t0
    1430:	00054503          	lbu	a0,0(a0)
    1434:	400022b7          	lui	t0,0x40002
    1438:	00a2a023          	sw	a0,0(t0) # 40002000 <__rodata_end+0x3fffa629>
    143c:	7ffff297          	auipc	t0,0x7ffff
    1440:	d0428293          	add	t0,t0,-764 # 80000140 <__data_start+0x140>
    1444:	0002a083          	lw	ra,0(t0)
    1448:	0042a503          	lw	a0,4(t0)
    144c:	0082a583          	lw	a1,8(t0)
    1450:	7ffff517          	auipc	a0,0x7ffff
    1454:	d1050513          	add	a0,a0,-752 # 80000160 <__data_start+0x160>
    1458:	00050293          	mv	t0,a0
    145c:	40002337          	lui	t1,0x40002
    1460:	0002c503          	lbu	a0,0(t0)
    1464:	00128293          	add	t0,t0,1
    1468:	00050663          	beqz	a0,1474 <trap_vector+0x3cc>
    146c:	00a32023          	sw	a0,0(t1) # 40002000 <__rodata_end+0x3fffa629>
    1470:	ff1ff06f          	j	1460 <trap_vector+0x3b8>
    1474:	34302573          	csrr	a0,mtval
    1478:	7ffff297          	auipc	t0,0x7ffff
    147c:	cf828293          	add	t0,t0,-776 # 80000170 <__data_start+0x170>
    1480:	0012a023          	sw	ra,0(t0)
    1484:	00a2a223          	sw	a0,4(t0)
    1488:	00b2a423          	sw	a1,8(t0)
    148c:	00050513          	mv	a0,a0
    1490:	00050593          	mv	a1,a0
    1494:	01855513          	srl	a0,a0,0x18
    1498:	00050513          	mv	a0,a0
    149c:	00050313          	mv	t1,a0
    14a0:	00435513          	srl	a0,t1,0x4
    14a4:	00f57513          	and	a0,a0,15
    14a8:	7ffff297          	auipc	t0,0x7ffff
    14ac:	cd828293          	add	t0,t0,-808 # 80000180 <__data_start+0x180>
    14b0:	00550533          	add	a0,a0,t0
    14b4:	00054503          	lbu	a0,0(a0)
    14b8:	400022b7          	lui	t0,0x40002
    14bc:	00a2a023          	sw	a0,0(t0) # 40002000 <__rodata_end+0x3fffa629>
    14c0:	00f37513          	and	a0,t1,15
    14c4:	7ffff297          	auipc	t0,0x7ffff
    14c8:	cbc28293          	add	t0,t0,-836 # 80000180 <__data_start+0x180>
    14cc:	00550533          	add	a0,a0,t0
    14d0:	00054503          	lbu	a0,0(a0)
    14d4:	400022b7          	lui	t0,0x40002
    14d8:	00a2a023          	sw	a0,0(t0) # 40002000 <__rodata_end+0x3fffa629>
    14dc:	00058513          	mv	a0,a1
    14e0:	01055513          	srl	a0,a0,0x10
    14e4:	00050513          	mv	a0,a0
    14e8:	00050313          	mv	t1,a0
    14ec:	00435513          	srl	a0,t1,0x4
    14f0:	00f57513          	and	a0,a0,15
    14f4:	7ffff297          	auipc	t0,0x7ffff
    14f8:	cac28293          	add	t0,t0,-852 # 800001a0 <__data_start+0x1a0>
    14fc:	00550533          	add	a0,a0,t0
    1500:	00054503          	lbu	a0,0(a0)
    1504:	400022b7          	lui	t0,0x40002
    1508:	00a2a023          	sw	a0,0(t0) # 40002000 <__rodata_end+0x3fffa629>
    150c:	00f37513          	and	a0,t1,15
    1510:	7ffff297          	auipc	t0,0x7ffff
    1514:	c9028293          	add	t0,t0,-880 # 800001a0 <__data_start+0x1a0>
    1518:	00550533          	add	a0,a0,t0
    151c:	00054503          	lbu	a0,0(a0)
    1520:	400022b7          	lui	t0,0x40002
    1524:	00a2a023          	sw	a0,0(t0) # 40002000 <__rodata_end+0x3fffa629>
    1528:	00058513          	mv	a0,a1
    152c:	00855513          	srl	a0,a0,0x8
    1530:	00050513          	mv	a0,a0
    1534:	00050313          	mv	t1,a0
    1538:	00435513          	srl	a0,t1,0x4
    153c:	00f57513          	and	a0,a0,15
    1540:	7ffff297          	auipc	t0,0x7ffff
    1544:	c8028293          	add	t0,t0,-896 # 800001c0 <__data_start+0x1c0>
    1548:	00550533          	add	a0,a0,t0
    154c:	00054503          	lbu	a0,0(a0)
    1550:	400022b7          	lui	t0,0x40002
    1554:	00a2a023          	sw	a0,0(t0) # 40002000 <__rodata_end+0x3fffa629>
    1558:	00f37513          	and	a0,t1,15
    155c:	7ffff297          	auipc	t0,0x7ffff
    1560:	c6428293          	add	t0,t0,-924 # 800001c0 <__data_start+0x1c0>
    1564:	00550533          	add	a0,a0,t0
    1568:	00054503          	lbu	a0,0(a0)
    156c:	400022b7          	lui	t0,0x40002
    1570:	00a2a023          	sw	a0,0(t0) # 40002000 <__rodata_end+0x3fffa629>
    1574:	00058513          	mv	a0,a1
    1578:	00050513          	mv	a0,a0
    157c:	00050313          	mv	t1,a0
    1580:	00435513          	srl	a0,t1,0x4
    1584:	00f57513          	and	a0,a0,15
    1588:	7ffff297          	auipc	t0,0x7ffff
    158c:	c5828293          	add	t0,t0,-936 # 800001e0 <__data_start+0x1e0>
    1590:	00550533          	add	a0,a0,t0
    1594:	00054503          	lbu	a0,0(a0)
    1598:	400022b7          	lui	t0,0x40002
    159c:	00a2a023          	sw	a0,0(t0) # 40002000 <__rodata_end+0x3fffa629>
    15a0:	00f37513          	and	a0,t1,15
    15a4:	7ffff297          	auipc	t0,0x7ffff
    15a8:	c3c28293          	add	t0,t0,-964 # 800001e0 <__data_start+0x1e0>
    15ac:	00550533          	add	a0,a0,t0
    15b0:	00054503          	lbu	a0,0(a0)
    15b4:	400022b7          	lui	t0,0x40002
    15b8:	00a2a023          	sw	a0,0(t0) # 40002000 <__rodata_end+0x3fffa629>
    15bc:	7ffff297          	auipc	t0,0x7ffff
    15c0:	c2428293          	add	t0,t0,-988 # 800001e0 <__data_start+0x1e0>
    15c4:	0002a083          	lw	ra,0(t0)
    15c8:	0042a503          	lw	a0,4(t0)
    15cc:	0082a583          	lw	a1,8(t0)
    15d0:	7ffff517          	auipc	a0,0x7ffff
    15d4:	c3050513          	add	a0,a0,-976 # 80000200 <__data_start+0x200>
    15d8:	00050293          	mv	t0,a0
    15dc:	40002337          	lui	t1,0x40002
    15e0:	0002c503          	lbu	a0,0(t0)
    15e4:	00128293          	add	t0,t0,1
    15e8:	00050663          	beqz	a0,15f4 <trap_vector+0x54c>
    15ec:	00a32023          	sw	a0,0(t1) # 40002000 <__rodata_end+0x3fffa629>
    15f0:	ff1ff06f          	j	15e0 <trap_vector+0x538>
    15f4:	00000393          	li	t2,0
    15f8:	08000e13          	li	t3,128

000015fc <trap_dump_registers>:
    15fc:	0023d513          	srl	a0,t2,0x2
    1600:	7ffff297          	auipc	t0,0x7ffff
    1604:	c1028293          	add	t0,t0,-1008 # 80000210 <__data_start+0x210>
    1608:	0012a023          	sw	ra,0(t0)
    160c:	00a2a223          	sw	a0,4(t0)
    1610:	00b2a423          	sw	a1,8(t0)
    1614:	00050513          	mv	a0,a0
    1618:	00050593          	mv	a1,a0
    161c:	01855513          	srl	a0,a0,0x18
    1620:	00050513          	mv	a0,a0
    1624:	00050313          	mv	t1,a0
    1628:	00435513          	srl	a0,t1,0x4
    162c:	00f57513          	and	a0,a0,15
    1630:	7ffff297          	auipc	t0,0x7ffff
    1634:	bf028293          	add	t0,t0,-1040 # 80000220 <__data_start+0x220>
    1638:	00550533          	add	a0,a0,t0
    163c:	00054503          	lbu	a0,0(a0)
    1640:	400022b7          	lui	t0,0x40002
    1644:	00a2a023          	sw	a0,0(t0) # 40002000 <__rodata_end+0x3fffa629>
    1648:	00f37513          	and	a0,t1,15
    164c:	7ffff297          	auipc	t0,0x7ffff
    1650:	bd428293          	add	t0,t0,-1068 # 80000220 <__data_start+0x220>
    1654:	00550533          	add	a0,a0,t0
    1658:	00054503          	lbu	a0,0(a0)
    165c:	400022b7          	lui	t0,0x40002
    1660:	00a2a023          	sw	a0,0(t0) # 40002000 <__rodata_end+0x3fffa629>
    1664:	00058513          	mv	a0,a1
    1668:	01055513          	srl	a0,a0,0x10
    166c:	00050513          	mv	a0,a0
    1670:	00050313          	mv	t1,a0
    1674:	00435513          	srl	a0,t1,0x4
    1678:	00f57513          	and	a0,a0,15
    167c:	7ffff297          	auipc	t0,0x7ffff
    1680:	bc428293          	add	t0,t0,-1084 # 80000240 <__data_start+0x240>
    1684:	00550533          	add	a0,a0,t0
    1688:	00054503          	lbu	a0,0(a0)
    168c:	400022b7          	lui	t0,0x40002
    1690:	00a2a023          	sw	a0,0(t0) # 40002000 <__rodata_end+0x3fffa629>
    1694:	00f37513          	and	a0,t1,15
    1698:	7ffff297          	auipc	t0,0x7ffff
    169c:	ba828293          	add	t0,t0,-1112 # 80000240 <__data_start+0x240>
    16a0:	00550533          	add	a0,a0,t0
    16a4:	00054503          	lbu	a0,0(a0)
    16a8:	400022b7          	lui	t0,0x40002
    16ac:	00a2a023          	sw	a0,0(t0) # 40002000 <__rodata_end+0x3fffa629>
    16b0:	00058513          	mv	a0,a1
    16b4:	00855513          	srl	a0,a0,0x8
    16b8:	00050513          	mv	a0,a0
    16bc:	00050313          	mv	t1,a0
    16c0:	00435513          	srl	a0,t1,0x4
    16c4:	00f57513          	and	a0,a0,15
    16c8:	7ffff297          	auipc	t0,0x7ffff
    16cc:	b9828293          	add	t0,t0,-1128 # 80000260 <__data_start+0x260>
    16d0:	00550533          	add	a0,a0,t0
    16d4:	00054503          	lbu	a0,0(a0)
    16d8:	400022b7          	lui	t0,0x40002
    16dc:	00a2a023          	sw	a0,0(t0) # 40002000 <__rodata_end+0x3fffa629>
    16e0:	00f37513          	and	a0,t1,15
    16e4:	7ffff297          	auipc	t0,0x7ffff
    16e8:	b7c28293          	add	t0,t0,-1156 # 80000260 <__data_start+0x260>
    16ec:	00550533          	add	a0,a0,t0
    16f0:	00054503          	lbu	a0,0(a0)
    16f4:	400022b7          	lui	t0,0x40002
    16f8:	00a2a023          	sw	a0,0(t0) # 40002000 <__rodata_end+0x3fffa629>
    16fc:	00058513          	mv	a0,a1
    1700:	00050513          	mv	a0,a0
    1704:	00050313          	mv	t1,a0
    1708:	00435513          	srl	a0,t1,0x4
    170c:	00f57513          	and	a0,a0,15
    1710:	7ffff297          	auipc	t0,0x7ffff
    1714:	b7028293          	add	t0,t0,-1168 # 80000280 <__data_start+0x280>
    1718:	00550533          	add	a0,a0,t0
    171c:	00054503          	lbu	a0,0(a0)
    1720:	400022b7          	lui	t0,0x40002
    1724:	00a2a023          	sw	a0,0(t0) # 40002000 <__rodata_end+0x3fffa629>
    1728:	00f37513          	and	a0,t1,15
    172c:	7ffff297          	auipc	t0,0x7ffff
    1730:	b5428293          	add	t0,t0,-1196 # 80000280 <__data_start+0x280>
    1734:	00550533          	add	a0,a0,t0
    1738:	00054503          	lbu	a0,0(a0)
    173c:	400022b7          	lui	t0,0x40002
    1740:	00a2a023          	sw	a0,0(t0) # 40002000 <__rodata_end+0x3fffa629>
    1744:	7ffff297          	auipc	t0,0x7ffff
    1748:	b3c28293          	add	t0,t0,-1220 # 80000280 <__data_start+0x280>
    174c:	0002a083          	lw	ra,0(t0)
    1750:	0042a503          	lw	a0,4(t0)
    1754:	0082a583          	lw	a1,8(t0)
    1758:	7ffff517          	auipc	a0,0x7ffff
    175c:	b4850513          	add	a0,a0,-1208 # 800002a0 <__data_start+0x2a0>
    1760:	00050293          	mv	t0,a0
    1764:	40002337          	lui	t1,0x40002
    1768:	0002c503          	lbu	a0,0(t0)
    176c:	00128293          	add	t0,t0,1
    1770:	00050663          	beqz	a0,177c <trap_dump_registers+0x180>
    1774:	00a32023          	sw	a0,0(t1) # 40002000 <__rodata_end+0x3fffa629>
    1778:	ff1ff06f          	j	1768 <trap_dump_registers+0x16c>
    177c:	00238533          	add	a0,t2,sp
    1780:	00052503          	lw	a0,0(a0)
    1784:	7ffff297          	auipc	t0,0x7ffff
    1788:	b2c28293          	add	t0,t0,-1236 # 800002b0 <__data_start+0x2b0>
    178c:	0012a023          	sw	ra,0(t0)
    1790:	00a2a223          	sw	a0,4(t0)
    1794:	00b2a423          	sw	a1,8(t0)
    1798:	00050513          	mv	a0,a0
    179c:	00050593          	mv	a1,a0
    17a0:	01855513          	srl	a0,a0,0x18
    17a4:	00050513          	mv	a0,a0
    17a8:	00050313          	mv	t1,a0
    17ac:	00435513          	srl	a0,t1,0x4
    17b0:	00f57513          	and	a0,a0,15
    17b4:	7ffff297          	auipc	t0,0x7ffff
    17b8:	b0c28293          	add	t0,t0,-1268 # 800002c0 <__data_start+0x2c0>
    17bc:	00550533          	add	a0,a0,t0
    17c0:	00054503          	lbu	a0,0(a0)
    17c4:	400022b7          	lui	t0,0x40002
    17c8:	00a2a023          	sw	a0,0(t0) # 40002000 <__rodata_end+0x3fffa629>
    17cc:	00f37513          	and	a0,t1,15
    17d0:	7ffff297          	auipc	t0,0x7ffff
    17d4:	af028293          	add	t0,t0,-1296 # 800002c0 <__data_start+0x2c0>
    17d8:	00550533          	add	a0,a0,t0
    17dc:	00054503          	lbu	a0,0(a0)
    17e0:	400022b7          	lui	t0,0x40002
    17e4:	00a2a023          	sw	a0,0(t0) # 40002000 <__rodata_end+0x3fffa629>
    17e8:	00058513          	mv	a0,a1
    17ec:	01055513          	srl	a0,a0,0x10
    17f0:	00050513          	mv	a0,a0
    17f4:	00050313          	mv	t1,a0
    17f8:	00435513          	srl	a0,t1,0x4
    17fc:	00f57513          	and	a0,a0,15
    1800:	7ffff297          	auipc	t0,0x7ffff
    1804:	ae028293          	add	t0,t0,-1312 # 800002e0 <__data_start+0x2e0>
    1808:	00550533          	add	a0,a0,t0
    180c:	00054503          	lbu	a0,0(a0)
    1810:	400022b7          	lui	t0,0x40002
    1814:	00a2a023          	sw	a0,0(t0) # 40002000 <__rodata_end+0x3fffa629>
    1818:	00f37513          	and	a0,t1,15
    181c:	7ffff297          	auipc	t0,0x7ffff
    1820:	ac428293          	add	t0,t0,-1340 # 800002e0 <__data_start+0x2e0>
    1824:	00550533          	add	a0,a0,t0
    1828:	00054503          	lbu	a0,0(a0)
    182c:	400022b7          	lui	t0,0x40002
    1830:	00a2a023          	sw	a0,0(t0) # 40002000 <__rodata_end+0x3fffa629>
    1834:	00058513          	mv	a0,a1
    1838:	00855513          	srl	a0,a0,0x8
    183c:	00050513          	mv	a0,a0
    1840:	00050313          	mv	t1,a0
    1844:	00435513          	srl	a0,t1,0x4
    1848:	00f57513          	and	a0,a0,15
    184c:	7ffff297          	auipc	t0,0x7ffff
    1850:	ab428293          	add	t0,t0,-1356 # 80000300 <__data_start+0x300>
    1854:	00550533          	add	a0,a0,t0
    1858:	00054503          	lbu	a0,0(a0)
    185c:	400022b7          	lui	t0,0x40002
    1860:	00a2a023          	sw	a0,0(t0) # 40002000 <__rodata_end+0x3fffa629>
    1864:	00f37513          	and	a0,t1,15
    1868:	7ffff297          	auipc	t0,0x7ffff
    186c:	a9828293          	add	t0,t0,-1384 # 80000300 <__data_start+0x300>
    1870:	00550533          	add	a0,a0,t0
    1874:	00054503          	lbu	a0,0(a0)
    1878:	400022b7          	lui	t0,0x40002
    187c:	00a2a023          	sw	a0,0(t0) # 40002000 <__rodata_end+0x3fffa629>
    1880:	00058513          	mv	a0,a1
    1884:	00050513          	mv	a0,a0
    1888:	00050313          	mv	t1,a0
    188c:	00435513          	srl	a0,t1,0x4
    1890:	00f57513          	and	a0,a0,15
    1894:	7ffff297          	auipc	t0,0x7ffff
    1898:	a8c28293          	add	t0,t0,-1396 # 80000320 <__data_start+0x320>
    189c:	00550533          	add	a0,a0,t0
    18a0:	00054503          	lbu	a0,0(a0)
    18a4:	400022b7          	lui	t0,0x40002
    18a8:	00a2a023          	sw	a0,0(t0) # 40002000 <__rodata_end+0x3fffa629>
    18ac:	00f37513          	and	a0,t1,15
    18b0:	7ffff297          	auipc	t0,0x7ffff
    18b4:	a7028293          	add	t0,t0,-1424 # 80000320 <__data_start+0x320>
    18b8:	00550533          	add	a0,a0,t0
    18bc:	00054503          	lbu	a0,0(a0)
    18c0:	400022b7          	lui	t0,0x40002
    18c4:	00a2a023          	sw	a0,0(t0) # 40002000 <__rodata_end+0x3fffa629>
    18c8:	7ffff297          	auipc	t0,0x7ffff
    18cc:	a5828293          	add	t0,t0,-1448 # 80000320 <__data_start+0x320>
    18d0:	0002a083          	lw	ra,0(t0)
    18d4:	0042a503          	lw	a0,4(t0)
    18d8:	0082a583          	lw	a1,8(t0)
    18dc:	7ffff517          	auipc	a0,0x7ffff
    18e0:	a6450513          	add	a0,a0,-1436 # 80000340 <__data_start+0x340>
    18e4:	00050293          	mv	t0,a0
    18e8:	40002337          	lui	t1,0x40002
    18ec:	0002c503          	lbu	a0,0(t0)
    18f0:	00128293          	add	t0,t0,1
    18f4:	00050663          	beqz	a0,1900 <trap_dump_registers+0x304>
    18f8:	00a32023          	sw	a0,0(t1) # 40002000 <__rodata_end+0x3fffa629>
    18fc:	ff1ff06f          	j	18ec <trap_dump_registers+0x2f0>
    1900:	00438393          	add	t2,t2,4
    1904:	cfc39ce3          	bne	t2,t3,15fc <trap_dump_registers>
    1908:	7ffff517          	auipc	a0,0x7ffff
    190c:	a4850513          	add	a0,a0,-1464 # 80000350 <__data_start+0x350>
    1910:	00050293          	mv	t0,a0
    1914:	40002337          	lui	t1,0x40002
    1918:	0002c503          	lbu	a0,0(t0)
    191c:	00128293          	add	t0,t0,1
    1920:	00050663          	beqz	a0,192c <abort>
    1924:	00a32023          	sw	a0,0(t1) # 40002000 <__rodata_end+0x3fffa629>
    1928:	ff1ff06f          	j	1918 <trap_dump_registers+0x31c>

0000192c <abort>:
    192c:	ed8ff06f          	j	1004 <_end>
    1930:	00012003          	lw	zero,0(sp)
    1934:	00412083          	lw	ra,4(sp)
    1938:	00812103          	lw	sp,8(sp)
    193c:	00c12183          	lw	gp,12(sp)
    1940:	01012203          	lw	tp,16(sp)
    1944:	01412283          	lw	t0,20(sp)
    1948:	01812303          	lw	t1,24(sp)
    194c:	01c12383          	lw	t2,28(sp)
    1950:	02012403          	lw	s0,32(sp)
    1954:	02412483          	lw	s1,36(sp)
    1958:	02812503          	lw	a0,40(sp)
    195c:	02c12583          	lw	a1,44(sp)
    1960:	03012603          	lw	a2,48(sp)
    1964:	03412683          	lw	a3,52(sp)
    1968:	03812703          	lw	a4,56(sp)
    196c:	03c12783          	lw	a5,60(sp)
    1970:	04012803          	lw	a6,64(sp)
    1974:	04412883          	lw	a7,68(sp)
    1978:	04812903          	lw	s2,72(sp)
    197c:	04c12983          	lw	s3,76(sp)
    1980:	05012a03          	lw	s4,80(sp)
    1984:	05412a83          	lw	s5,84(sp)
    1988:	05812b03          	lw	s6,88(sp)
    198c:	05c12b83          	lw	s7,92(sp)
    1990:	06012c03          	lw	s8,96(sp)
    1994:	06412c83          	lw	s9,100(sp)
    1998:	06812d03          	lw	s10,104(sp)
    199c:	06c12d83          	lw	s11,108(sp)
    19a0:	07012e03          	lw	t3,112(sp)
    19a4:	07412e83          	lw	t4,116(sp)
    19a8:	07812f03          	lw	t5,120(sp)
    19ac:	07c12f83          	lw	t6,124(sp)
    19b0:	08010113          	add	sp,sp,128
    19b4:	30200073          	mret
    19b8:	0000                	.insn	2, 0x
	...

000019bc <_load>:
    19bc:	800006b7          	lui	a3,0x80000
    19c0:	800007b7          	lui	a5,0x80000
    19c4:	80000737          	lui	a4,0x80000
    19c8:	800005b7          	lui	a1,0x80000
    19cc:	39868693          	add	a3,a3,920 # 80000398 <stop_time_val>
    19d0:	00078793          	mv	a5,a5
    19d4:	39870713          	add	a4,a4,920 # 80000398 <stop_time_val>
    19d8:	3a058593          	add	a1,a1,928 # 800003a0 <__bss_end>
    19dc:	40f68533          	sub	a0,a3,a5
    19e0:	40e585b3          	sub	a1,a1,a4
    19e4:	02f68863          	beq	a3,a5,1a14 <_load+0x58>
    19e8:	000087b7          	lui	a5,0x8
    19ec:	9d778693          	add	a3,a5,-1577 # 79d7 <__rodata_end>
    19f0:	80000837          	lui	a6,0x80000
    19f4:	9d778793          	add	a5,a5,-1577
    19f8:	00d50533          	add	a0,a0,a3
    19fc:	40f80833          	sub	a6,a6,a5
    1a00:	0007c603          	lbu	a2,0(a5)
    1a04:	00f806b3          	add	a3,a6,a5
    1a08:	00178793          	add	a5,a5,1
    1a0c:	00c68023          	sb	a2,0(a3)
    1a10:	fea798e3          	bne	a5,a0,1a00 <_load+0x44>
    1a14:	00058c63          	beqz	a1,1a2c <_load+0x70>
    1a18:	ffc5f793          	and	a5,a1,-4
    1a1c:	00e787b3          	add	a5,a5,a4
    1a20:	00072023          	sw	zero,0(a4)
    1a24:	00470713          	add	a4,a4,4
    1a28:	fef71ce3          	bne	a4,a5,1a20 <_load+0x64>
    1a2c:	00008067          	ret

00001a30 <calc_func>:
    1a30:	fe010113          	add	sp,sp,-32
    1a34:	00812c23          	sw	s0,24(sp)
    1a38:	00051403          	lh	s0,0(a0)
    1a3c:	00112e23          	sw	ra,28(sp)
    1a40:	40745793          	sra	a5,s0,0x7
    1a44:	0017f793          	and	a5,a5,1
    1a48:	00078c63          	beqz	a5,1a60 <calc_func+0x30>
    1a4c:	01c12083          	lw	ra,28(sp)
    1a50:	07f47513          	and	a0,s0,127
    1a54:	01812403          	lw	s0,24(sp)
    1a58:	02010113          	add	sp,sp,32
    1a5c:	00008067          	ret
    1a60:	40345713          	sra	a4,s0,0x3
    1a64:	00f77713          	and	a4,a4,15
    1a68:	00471793          	sll	a5,a4,0x4
    1a6c:	00f70633          	add	a2,a4,a5
    1a70:	00912a23          	sw	s1,20(sp)
    1a74:	01312623          	sw	s3,12(sp)
    1a78:	01212823          	sw	s2,16(sp)
    1a7c:	00747693          	and	a3,s0,7
    1a80:	0385d783          	lhu	a5,56(a1)
    1a84:	00050993          	mv	s3,a0
    1a88:	00058493          	mv	s1,a1
    1a8c:	00060713          	mv	a4,a2
    1a90:	08068263          	beqz	a3,1b14 <calc_func+0xe4>
    1a94:	00100613          	li	a2,1
    1a98:	06c69663          	bne	a3,a2,1b04 <calc_func+0xd4>
    1a9c:	00078613          	mv	a2,a5
    1aa0:	00070593          	mv	a1,a4
    1aa4:	02848513          	add	a0,s1,40
    1aa8:	4a4010ef          	jal	2f4c <core_bench_matrix>
    1aac:	03c4d783          	lhu	a5,60(s1)
    1ab0:	01051913          	sll	s2,a0,0x10
    1ab4:	41095913          	sra	s2,s2,0x10
    1ab8:	08079863          	bnez	a5,1b48 <calc_func+0x118>
    1abc:	0384d783          	lhu	a5,56(s1)
    1ac0:	02a49e23          	sh	a0,60(s1)
    1ac4:	00078593          	mv	a1,a5
    1ac8:	27c020ef          	jal	3d44 <crcu16>
    1acc:	00050793          	mv	a5,a0
    1ad0:	f0047413          	and	s0,s0,-256
    1ad4:	07f97513          	and	a0,s2,127
    1ad8:	00856433          	or	s0,a0,s0
    1adc:	02f49c23          	sh	a5,56(s1)
    1ae0:	08046413          	or	s0,s0,128
    1ae4:	00899023          	sh	s0,0(s3)
    1ae8:	01c12083          	lw	ra,28(sp)
    1aec:	01812403          	lw	s0,24(sp)
    1af0:	01412483          	lw	s1,20(sp)
    1af4:	01012903          	lw	s2,16(sp)
    1af8:	00c12983          	lw	s3,12(sp)
    1afc:	02010113          	add	sp,sp,32
    1b00:	00008067          	ret
    1b04:	01041513          	sll	a0,s0,0x10
    1b08:	01055513          	srl	a0,a0,0x10
    1b0c:	00040913          	mv	s2,s0
    1b10:	fb5ff06f          	j	1ac4 <calc_func+0x94>
    1b14:	02100693          	li	a3,33
    1b18:	00c6e463          	bltu	a3,a2,1b20 <calc_func+0xf0>
    1b1c:	02200713          	li	a4,34
    1b20:	00249683          	lh	a3,2(s1)
    1b24:	00049603          	lh	a2,0(s1)
    1b28:	0144a583          	lw	a1,20(s1)
    1b2c:	0184a503          	lw	a0,24(s1)
    1b30:	669010ef          	jal	3998 <core_bench_state>
    1b34:	03e4d783          	lhu	a5,62(s1)
    1b38:	01051913          	sll	s2,a0,0x10
    1b3c:	41095913          	sra	s2,s2,0x10
    1b40:	00079463          	bnez	a5,1b48 <calc_func+0x118>
    1b44:	02a49f23          	sh	a0,62(s1)
    1b48:	0384d783          	lhu	a5,56(s1)
    1b4c:	f79ff06f          	j	1ac4 <calc_func+0x94>

00001b50 <cmp_complex>:
    1b50:	fe010113          	add	sp,sp,-32
    1b54:	00912a23          	sw	s1,20(sp)
    1b58:	00051483          	lh	s1,0(a0)
    1b5c:	00812c23          	sw	s0,24(sp)
    1b60:	01212823          	sw	s2,16(sp)
    1b64:	4074d793          	sra	a5,s1,0x7
    1b68:	01412423          	sw	s4,8(sp)
    1b6c:	00112e23          	sw	ra,28(sp)
    1b70:	01312623          	sw	s3,12(sp)
    1b74:	0017f793          	and	a5,a5,1
    1b78:	00058913          	mv	s2,a1
    1b7c:	00060413          	mv	s0,a2
    1b80:	07f4fa13          	and	s4,s1,127
    1b84:	06079c63          	bnez	a5,1bfc <cmp_complex+0xac>
    1b88:	4034d713          	sra	a4,s1,0x3
    1b8c:	00f77713          	and	a4,a4,15
    1b90:	00471793          	sll	a5,a4,0x4
    1b94:	00f70633          	add	a2,a4,a5
    1b98:	0074f693          	and	a3,s1,7
    1b9c:	03845783          	lhu	a5,56(s0)
    1ba0:	00050993          	mv	s3,a0
    1ba4:	00060713          	mv	a4,a2
    1ba8:	14068c63          	beqz	a3,1d00 <cmp_complex+0x1b0>
    1bac:	00100613          	li	a2,1
    1bb0:	0ec69a63          	bne	a3,a2,1ca4 <cmp_complex+0x154>
    1bb4:	00078613          	mv	a2,a5
    1bb8:	00070593          	mv	a1,a4
    1bbc:	02840513          	add	a0,s0,40
    1bc0:	38c010ef          	jal	2f4c <core_bench_matrix>
    1bc4:	03c45783          	lhu	a5,60(s0)
    1bc8:	01051a13          	sll	s4,a0,0x10
    1bcc:	410a5a13          	sra	s4,s4,0x10
    1bd0:	16079263          	bnez	a5,1d34 <cmp_complex+0x1e4>
    1bd4:	03845783          	lhu	a5,56(s0)
    1bd8:	02a41e23          	sh	a0,60(s0)
    1bdc:	00078593          	mv	a1,a5
    1be0:	07fa7a13          	and	s4,s4,127
    1be4:	f004f493          	and	s1,s1,-256
    1be8:	15c020ef          	jal	3d44 <crcu16>
    1bec:	009a64b3          	or	s1,s4,s1
    1bf0:	0804e493          	or	s1,s1,128
    1bf4:	02a41c23          	sh	a0,56(s0)
    1bf8:	00999023          	sh	s1,0(s3)
    1bfc:	00091483          	lh	s1,0(s2)
    1c00:	4074d793          	sra	a5,s1,0x7
    1c04:	0017f793          	and	a5,a5,1
    1c08:	07f4f993          	and	s3,s1,127
    1c0c:	06079a63          	bnez	a5,1c80 <cmp_complex+0x130>
    1c10:	4034d713          	sra	a4,s1,0x3
    1c14:	00f77713          	and	a4,a4,15
    1c18:	00471793          	sll	a5,a4,0x4
    1c1c:	00f70633          	add	a2,a4,a5
    1c20:	0074f693          	and	a3,s1,7
    1c24:	03845783          	lhu	a5,56(s0)
    1c28:	00060713          	mv	a4,a2
    1c2c:	08068c63          	beqz	a3,1cc4 <cmp_complex+0x174>
    1c30:	00100613          	li	a2,1
    1c34:	08c69063          	bne	a3,a2,1cb4 <cmp_complex+0x164>
    1c38:	00078613          	mv	a2,a5
    1c3c:	00070593          	mv	a1,a4
    1c40:	02840513          	add	a0,s0,40
    1c44:	308010ef          	jal	2f4c <core_bench_matrix>
    1c48:	03c45783          	lhu	a5,60(s0)
    1c4c:	01051993          	sll	s3,a0,0x10
    1c50:	4109d993          	sra	s3,s3,0x10
    1c54:	0a079263          	bnez	a5,1cf8 <cmp_complex+0x1a8>
    1c58:	03845783          	lhu	a5,56(s0)
    1c5c:	02a41e23          	sh	a0,60(s0)
    1c60:	00078593          	mv	a1,a5
    1c64:	07f9f993          	and	s3,s3,127
    1c68:	f004f493          	and	s1,s1,-256
    1c6c:	0d8020ef          	jal	3d44 <crcu16>
    1c70:	0099e4b3          	or	s1,s3,s1
    1c74:	0804e493          	or	s1,s1,128
    1c78:	02a41c23          	sh	a0,56(s0)
    1c7c:	00991023          	sh	s1,0(s2)
    1c80:	01c12083          	lw	ra,28(sp)
    1c84:	01812403          	lw	s0,24(sp)
    1c88:	413a0533          	sub	a0,s4,s3
    1c8c:	01412483          	lw	s1,20(sp)
    1c90:	01012903          	lw	s2,16(sp)
    1c94:	00c12983          	lw	s3,12(sp)
    1c98:	00812a03          	lw	s4,8(sp)
    1c9c:	02010113          	add	sp,sp,32
    1ca0:	00008067          	ret
    1ca4:	01049513          	sll	a0,s1,0x10
    1ca8:	01055513          	srl	a0,a0,0x10
    1cac:	00048a13          	mv	s4,s1
    1cb0:	f2dff06f          	j	1bdc <cmp_complex+0x8c>
    1cb4:	01049513          	sll	a0,s1,0x10
    1cb8:	01055513          	srl	a0,a0,0x10
    1cbc:	00048993          	mv	s3,s1
    1cc0:	fa1ff06f          	j	1c60 <cmp_complex+0x110>
    1cc4:	02100693          	li	a3,33
    1cc8:	00c6e463          	bltu	a3,a2,1cd0 <cmp_complex+0x180>
    1ccc:	02200713          	li	a4,34
    1cd0:	00241683          	lh	a3,2(s0)
    1cd4:	00041603          	lh	a2,0(s0)
    1cd8:	01442583          	lw	a1,20(s0)
    1cdc:	01842503          	lw	a0,24(s0)
    1ce0:	4b9010ef          	jal	3998 <core_bench_state>
    1ce4:	03e45783          	lhu	a5,62(s0)
    1ce8:	01051993          	sll	s3,a0,0x10
    1cec:	4109d993          	sra	s3,s3,0x10
    1cf0:	00079463          	bnez	a5,1cf8 <cmp_complex+0x1a8>
    1cf4:	02a41f23          	sh	a0,62(s0)
    1cf8:	03845783          	lhu	a5,56(s0)
    1cfc:	f65ff06f          	j	1c60 <cmp_complex+0x110>
    1d00:	02100693          	li	a3,33
    1d04:	00c6e463          	bltu	a3,a2,1d0c <cmp_complex+0x1bc>
    1d08:	02200713          	li	a4,34
    1d0c:	00241683          	lh	a3,2(s0)
    1d10:	00041603          	lh	a2,0(s0)
    1d14:	01442583          	lw	a1,20(s0)
    1d18:	01842503          	lw	a0,24(s0)
    1d1c:	47d010ef          	jal	3998 <core_bench_state>
    1d20:	03e45783          	lhu	a5,62(s0)
    1d24:	01051a13          	sll	s4,a0,0x10
    1d28:	410a5a13          	sra	s4,s4,0x10
    1d2c:	00079463          	bnez	a5,1d34 <cmp_complex+0x1e4>
    1d30:	02a41f23          	sh	a0,62(s0)
    1d34:	03845783          	lhu	a5,56(s0)
    1d38:	ea5ff06f          	j	1bdc <cmp_complex+0x8c>

00001d3c <cmp_idx>:
    1d3c:	00060a63          	beqz	a2,1d50 <cmp_idx+0x14>
    1d40:	00251503          	lh	a0,2(a0)
    1d44:	00259783          	lh	a5,2(a1)
    1d48:	40f50533          	sub	a0,a0,a5
    1d4c:	00008067          	ret
    1d50:	00051783          	lh	a5,0(a0)
    1d54:	01079713          	sll	a4,a5,0x10
    1d58:	01075713          	srl	a4,a4,0x10
    1d5c:	00875713          	srl	a4,a4,0x8
    1d60:	f007f793          	and	a5,a5,-256
    1d64:	00e7e7b3          	or	a5,a5,a4
    1d68:	00f51023          	sh	a5,0(a0)
    1d6c:	00059783          	lh	a5,0(a1)
    1d70:	00251503          	lh	a0,2(a0)
    1d74:	01079713          	sll	a4,a5,0x10
    1d78:	01075713          	srl	a4,a4,0x10
    1d7c:	00875713          	srl	a4,a4,0x8
    1d80:	f007f793          	and	a5,a5,-256
    1d84:	00e7e7b3          	or	a5,a5,a4
    1d88:	00f59023          	sh	a5,0(a1)
    1d8c:	00259783          	lh	a5,2(a1)
    1d90:	40f50533          	sub	a0,a0,a5
    1d94:	00008067          	ret

00001d98 <copy_info>:
    1d98:	00059703          	lh	a4,0(a1)
    1d9c:	00259783          	lh	a5,2(a1)
    1da0:	00e51023          	sh	a4,0(a0)
    1da4:	00f51123          	sh	a5,2(a0)
    1da8:	00008067          	ret

00001dac <core_bench_list>:
    1dac:	00451303          	lh	t1,4(a0)
    1db0:	fc010113          	add	sp,sp,-64
    1db4:	02812c23          	sw	s0,56(sp)
    1db8:	01712e23          	sw	s7,28(sp)
    1dbc:	01812c23          	sw	s8,24(sp)
    1dc0:	02112e23          	sw	ra,60(sp)
    1dc4:	02912a23          	sw	s1,52(sp)
    1dc8:	03212823          	sw	s2,48(sp)
    1dcc:	03312623          	sw	s3,44(sp)
    1dd0:	03412423          	sw	s4,40(sp)
    1dd4:	03512223          	sw	s5,36(sp)
    1dd8:	03612023          	sw	s6,32(sp)
    1ddc:	01912a23          	sw	s9,20(sp)
    1de0:	01a12823          	sw	s10,16(sp)
    1de4:	01b12623          	sw	s11,12(sp)
    1de8:	02452403          	lw	s0,36(a0)
    1dec:	00050b93          	mv	s7,a0
    1df0:	00058813          	mv	a6,a1
    1df4:	00000c13          	li	s8,0
    1df8:	54605c63          	blez	t1,2350 <core_bench_list+0x5a4>
    1dfc:	5605c463          	bltz	a1,2364 <core_bench_list+0x5b8>
    1e00:	58040463          	beqz	s0,2388 <core_bench_list+0x5dc>
    1e04:	00058d13          	mv	s10,a1
    1e08:	00000893          	li	a7,0
    1e0c:	00000593          	li	a1,0
    1e10:	00000513          	li	a0,0
    1e14:	00000913          	li	s2,0
    1e18:	00040793          	mv	a5,s0
    1e1c:	00c0006f          	j	1e28 <core_bench_list+0x7c>
    1e20:	0007a783          	lw	a5,0(a5)
    1e24:	10078063          	beqz	a5,1f24 <core_bench_list+0x178>
    1e28:	0047a703          	lw	a4,4(a5)
    1e2c:	00271603          	lh	a2,2(a4)
    1e30:	fecd18e3          	bne	s10,a2,1e20 <core_bench_list+0x74>
    1e34:	00000693          	li	a3,0
    1e38:	0080006f          	j	1e40 <core_bench_list+0x94>
    1e3c:	00070413          	mv	s0,a4
    1e40:	00042703          	lw	a4,0(s0)
    1e44:	00d42023          	sw	a3,0(s0)
    1e48:	00040693          	mv	a3,s0
    1e4c:	fe0718e3          	bnez	a4,1e3c <core_bench_list+0x90>
    1e50:	0c078e63          	beqz	a5,1f2c <core_bench_list+0x180>
    1e54:	0047a703          	lw	a4,4(a5)
    1e58:	00071703          	lh	a4,0(a4)
    1e5c:	00177693          	and	a3,a4,1
    1e60:	00068c63          	beqz	a3,1e78 <core_bench_list+0xcc>
    1e64:	40975713          	sra	a4,a4,0x9
    1e68:	00177713          	and	a4,a4,1
    1e6c:	00e90733          	add	a4,s2,a4
    1e70:	01071913          	sll	s2,a4,0x10
    1e74:	01095913          	srl	s2,s2,0x10
    1e78:	0007a703          	lw	a4,0(a5)
    1e7c:	00070c63          	beqz	a4,1e94 <core_bench_list+0xe8>
    1e80:	00072683          	lw	a3,0(a4)
    1e84:	00d7a023          	sw	a3,0(a5)
    1e88:	00042783          	lw	a5,0(s0)
    1e8c:	00f72023          	sw	a5,0(a4)
    1e90:	00e42023          	sw	a4,0(s0)
    1e94:	00150513          	add	a0,a0,1
    1e98:	01051513          	sll	a0,a0,0x10
    1e9c:	01055513          	srl	a0,a0,0x10
    1ea0:	00158793          	add	a5,a1,1
    1ea4:	01079593          	sll	a1,a5,0x10
    1ea8:	4105d593          	sra	a1,a1,0x10
    1eac:	06064063          	bltz	a2,1f0c <core_bench_list+0x160>
    1eb0:	00160613          	add	a2,a2,1
    1eb4:	01061d13          	sll	s10,a2,0x10
    1eb8:	01079793          	sll	a5,a5,0x10
    1ebc:	410d5d13          	sra	s10,s10,0x10
    1ec0:	0107d793          	srl	a5,a5,0x10
    1ec4:	08b30c63          	beq	t1,a1,1f5c <core_bench_list+0x1b0>
    1ec8:	0ff7fc13          	zext.b	s8,a5
    1ecc:	000c0693          	mv	a3,s8
    1ed0:	00040793          	mv	a5,s0
    1ed4:	ffff8637          	lui	a2,0xffff8
    1ed8:	f40d50e3          	bgez	s10,1e18 <core_bench_list+0x6c>
    1edc:	0047a703          	lw	a4,4(a5)
    1ee0:	00074c03          	lbu	s8,0(a4)
    1ee4:	f4dc08e3          	beq	s8,a3,1e34 <core_bench_list+0x88>
    1ee8:	0007a783          	lw	a5,0(a5)
    1eec:	00078c63          	beqz	a5,1f04 <core_bench_list+0x158>
    1ef0:	0047a703          	lw	a4,4(a5)
    1ef4:	00074c03          	lbu	s8,0(a4)
    1ef8:	f2dc0ee3          	beq	s8,a3,1e34 <core_bench_list+0x88>
    1efc:	0007a783          	lw	a5,0(a5)
    1f00:	fe0798e3          	bnez	a5,1ef0 <core_bench_list+0x144>
    1f04:	00068c13          	mv	s8,a3
    1f08:	f2dff06f          	j	1e34 <core_bench_list+0x88>
    1f0c:	01079793          	sll	a5,a5,0x10
    1f10:	0107d793          	srl	a5,a5,0x10
    1f14:	04658263          	beq	a1,t1,1f58 <core_bench_list+0x1ac>
    1f18:	0ff7f693          	zext.b	a3,a5
    1f1c:	00040793          	mv	a5,s0
    1f20:	fd1ff06f          	j	1ef0 <core_bench_list+0x144>
    1f24:	000d0613          	mv	a2,s10
    1f28:	f0dff06f          	j	1e34 <core_bench_list+0x88>
    1f2c:	00042783          	lw	a5,0(s0)
    1f30:	00188893          	add	a7,a7,1
    1f34:	01089893          	sll	a7,a7,0x10
    1f38:	0047a783          	lw	a5,4(a5)
    1f3c:	0108d893          	srl	a7,a7,0x10
    1f40:	00178783          	lb	a5,1(a5)
    1f44:	0017f793          	and	a5,a5,1
    1f48:	00f907b3          	add	a5,s2,a5
    1f4c:	01079913          	sll	s2,a5,0x10
    1f50:	01095913          	srl	s2,s2,0x10
    1f54:	f4dff06f          	j	1ea0 <core_bench_list+0xf4>
    1f58:	00060d13          	mv	s10,a2
    1f5c:	00251793          	sll	a5,a0,0x2
    1f60:	411787b3          	sub	a5,a5,a7
    1f64:	00f90933          	add	s2,s2,a5
    1f68:	01091913          	sll	s2,s2,0x10
    1f6c:	01095913          	srl	s2,s2,0x10
    1f70:	2b004463          	bgtz	a6,2218 <core_bench_list+0x46c>
    1f74:	00042783          	lw	a5,0(s0)
    1f78:	00040493          	mv	s1,s0
    1f7c:	0007a983          	lw	s3,0(a5)
    1f80:	0047a703          	lw	a4,4(a5)
    1f84:	0049a603          	lw	a2,4(s3)
    1f88:	0009a683          	lw	a3,0(s3)
    1f8c:	00c7a223          	sw	a2,4(a5)
    1f90:	00e9a223          	sw	a4,4(s3)
    1f94:	00d7a023          	sw	a3,0(a5)
    1f98:	0009a023          	sw	zero,0(s3)
    1f9c:	140d4463          	bltz	s10,20e4 <core_bench_list+0x338>
    1fa0:	0044a783          	lw	a5,4(s1)
    1fa4:	00279783          	lh	a5,2(a5)
    1fa8:	01a78c63          	beq	a5,s10,1fc0 <core_bench_list+0x214>
    1fac:	0004a483          	lw	s1,0(s1)
    1fb0:	24048063          	beqz	s1,21f0 <core_bench_list+0x444>
    1fb4:	0044a783          	lw	a5,4(s1)
    1fb8:	00279783          	lh	a5,2(a5)
    1fbc:	ffa798e3          	bne	a5,s10,1fac <core_bench_list+0x200>
    1fc0:	00442783          	lw	a5,4(s0)
    1fc4:	00090593          	mv	a1,s2
    1fc8:	00079503          	lh	a0,0(a5)
    1fcc:	46c020ef          	jal	4438 <crc16>
    1fd0:	0004a483          	lw	s1,0(s1)
    1fd4:	00050913          	mv	s2,a0
    1fd8:	fe0494e3          	bnez	s1,1fc0 <core_bench_list+0x214>
    1fdc:	00042483          	lw	s1,0(s0)
    1fe0:	0049a703          	lw	a4,4(s3)
    1fe4:	0044a683          	lw	a3,4(s1)
    1fe8:	0004a783          	lw	a5,0(s1)
    1fec:	00100e93          	li	t4,1
    1ff0:	00d9a223          	sw	a3,4(s3)
    1ff4:	00e4a223          	sw	a4,4(s1)
    1ff8:	00f9a023          	sw	a5,0(s3)
    1ffc:	0134a023          	sw	s3,0(s1)
    2000:	000e8f93          	mv	t6,t4
    2004:	12040e63          	beqz	s0,2140 <core_bench_list+0x394>
    2008:	00000493          	li	s1,0
    200c:	00000693          	li	a3,0
    2010:	00000f13          	li	t5,0
    2014:	001f0f13          	add	t5,t5,1
    2018:	00040613          	mv	a2,s0
    201c:	00000793          	li	a5,0
    2020:	01d7d863          	bge	a5,t4,2030 <core_bench_list+0x284>
    2024:	00062603          	lw	a2,0(a2) # ffff8000 <stack_top+0x7ffd8000>
    2028:	00178793          	add	a5,a5,1
    202c:	fe061ae3          	bnez	a2,2020 <core_bench_list+0x274>
    2030:	00068713          	mv	a4,a3
    2034:	000e8593          	mv	a1,t4
    2038:	00040693          	mv	a3,s0
    203c:	00060413          	mv	s0,a2
    2040:	02f05463          	blez	a5,2068 <core_bench_list+0x2bc>
    2044:	0a058863          	beqz	a1,20f4 <core_bench_list+0x348>
    2048:	02041663          	bnez	s0,2074 <core_bench_list+0x2c8>
    204c:	00068613          	mv	a2,a3
    2050:	fff78793          	add	a5,a5,-1
    2054:	0006a683          	lw	a3,0(a3)
    2058:	06070c63          	beqz	a4,20d0 <core_bench_list+0x324>
    205c:	00c72023          	sw	a2,0(a4)
    2060:	00060713          	mv	a4,a2
    2064:	fef040e3          	bgtz	a5,2044 <core_bench_list+0x298>
    2068:	16b05e63          	blez	a1,21e4 <core_bench_list+0x438>
    206c:	0c040063          	beqz	s0,212c <core_bench_list+0x380>
    2070:	0e078663          	beqz	a5,215c <core_bench_list+0x3b0>
    2074:	0046a803          	lw	a6,4(a3)
    2078:	00442503          	lw	a0,4(s0)
    207c:	00081603          	lh	a2,0(a6) # 80000000 <__data_start>
    2080:	00251303          	lh	t1,2(a0)
    2084:	00281e03          	lh	t3,2(a6)
    2088:	01061893          	sll	a7,a2,0x10
    208c:	0108d893          	srl	a7,a7,0x10
    2090:	f0067613          	and	a2,a2,-256
    2094:	0088d893          	srl	a7,a7,0x8
    2098:	01166633          	or	a2,a2,a7
    209c:	00c81023          	sh	a2,0(a6)
    20a0:	00051603          	lh	a2,0(a0)
    20a4:	01061813          	sll	a6,a2,0x10
    20a8:	01085813          	srl	a6,a6,0x10
    20ac:	f0067613          	and	a2,a2,-256
    20b0:	00885813          	srl	a6,a6,0x8
    20b4:	01066633          	or	a2,a2,a6
    20b8:	00c51023          	sh	a2,0(a0)
    20bc:	f9c358e3          	bge	t1,t3,204c <core_bench_list+0x2a0>
    20c0:	00040613          	mv	a2,s0
    20c4:	fff58593          	add	a1,a1,-1
    20c8:	00042403          	lw	s0,0(s0)
    20cc:	f80718e3          	bnez	a4,205c <core_bench_list+0x2b0>
    20d0:	00060493          	mv	s1,a2
    20d4:	00060713          	mv	a4,a2
    20d8:	f8dff06f          	j	2064 <core_bench_list+0x2b8>
    20dc:	0004a483          	lw	s1,0(s1)
    20e0:	10048863          	beqz	s1,21f0 <core_bench_list+0x444>
    20e4:	0044a783          	lw	a5,4(s1)
    20e8:	0007c783          	lbu	a5,0(a5)
    20ec:	fefc18e3          	bne	s8,a5,20dc <core_bench_list+0x330>
    20f0:	ed1ff06f          	j	1fc0 <core_bench_list+0x214>
    20f4:	0006a603          	lw	a2,0(a3)
    20f8:	fff78793          	add	a5,a5,-1
    20fc:	02070063          	beqz	a4,211c <core_bench_list+0x370>
    2100:	00d72023          	sw	a3,0(a4)
    2104:	02078063          	beqz	a5,2124 <core_bench_list+0x378>
    2108:	00068713          	mv	a4,a3
    210c:	00060693          	mv	a3,a2
    2110:	0006a603          	lw	a2,0(a3)
    2114:	fff78793          	add	a5,a5,-1
    2118:	fe0714e3          	bnez	a4,2100 <core_bench_list+0x354>
    211c:	00068493          	mv	s1,a3
    2120:	fe0794e3          	bnez	a5,2108 <core_bench_list+0x35c>
    2124:	ee0418e3          	bnez	s0,2014 <core_bench_list+0x268>
    2128:	00068713          	mv	a4,a3
    212c:	00072023          	sw	zero,0(a4)
    2130:	05ff0863          	beq	t5,t6,2180 <core_bench_list+0x3d4>
    2134:	00048413          	mv	s0,s1
    2138:	001e9e93          	sll	t4,t4,0x1
    213c:	ec0416e3          	bnez	s0,2008 <core_bench_list+0x25c>
    2140:	00002023          	sw	zero,0(zero) # 0 <_start-0x1000>
    2144:	00100073          	ebreak
    2148:	00040493          	mv	s1,s0
    214c:	02058263          	beqz	a1,2170 <core_bench_list+0x3c4>
    2150:	00040713          	mv	a4,s0
    2154:	fc078ce3          	beqz	a5,212c <core_bench_list+0x380>
    2158:	00078413          	mv	s0,a5
    215c:	00042783          	lw	a5,0(s0)
    2160:	fff58593          	add	a1,a1,-1
    2164:	fe0702e3          	beqz	a4,2148 <core_bench_list+0x39c>
    2168:	00872023          	sw	s0,0(a4)
    216c:	fe0592e3          	bnez	a1,2150 <core_bench_list+0x3a4>
    2170:	00040693          	mv	a3,s0
    2174:	00078413          	mv	s0,a5
    2178:	e8041ee3          	bnez	s0,2014 <core_bench_list+0x268>
    217c:	fadff06f          	j	2128 <core_bench_list+0x37c>
    2180:	0004a403          	lw	s0,0(s1)
    2184:	02040063          	beqz	s0,21a4 <core_bench_list+0x3f8>
    2188:	0044a783          	lw	a5,4(s1)
    218c:	00090593          	mv	a1,s2
    2190:	00079503          	lh	a0,0(a5)
    2194:	2a4020ef          	jal	4438 <crc16>
    2198:	00042403          	lw	s0,0(s0)
    219c:	00050913          	mv	s2,a0
    21a0:	fe0414e3          	bnez	s0,2188 <core_bench_list+0x3dc>
    21a4:	03c12083          	lw	ra,60(sp)
    21a8:	03812403          	lw	s0,56(sp)
    21ac:	03412483          	lw	s1,52(sp)
    21b0:	02c12983          	lw	s3,44(sp)
    21b4:	02812a03          	lw	s4,40(sp)
    21b8:	02412a83          	lw	s5,36(sp)
    21bc:	02012b03          	lw	s6,32(sp)
    21c0:	01c12b83          	lw	s7,28(sp)
    21c4:	01812c03          	lw	s8,24(sp)
    21c8:	01412c83          	lw	s9,20(sp)
    21cc:	01012d03          	lw	s10,16(sp)
    21d0:	00c12d83          	lw	s11,12(sp)
    21d4:	00090513          	mv	a0,s2
    21d8:	03012903          	lw	s2,48(sp)
    21dc:	04010113          	add	sp,sp,64
    21e0:	00008067          	ret
    21e4:	00070693          	mv	a3,a4
    21e8:	e20416e3          	bnez	s0,2014 <core_bench_list+0x268>
    21ec:	f3dff06f          	j	2128 <core_bench_list+0x37c>
    21f0:	00042483          	lw	s1,0(s0)
    21f4:	de0488e3          	beqz	s1,1fe4 <core_bench_list+0x238>
    21f8:	00442783          	lw	a5,4(s0)
    21fc:	00090593          	mv	a1,s2
    2200:	00079503          	lh	a0,0(a5)
    2204:	234020ef          	jal	4438 <crc16>
    2208:	0004a483          	lw	s1,0(s1)
    220c:	00050913          	mv	s2,a0
    2210:	da0498e3          	bnez	s1,1fc0 <core_bench_list+0x214>
    2214:	dc9ff06f          	j	1fdc <core_bench_list+0x230>
    2218:	00100a93          	li	s5,1
    221c:	f20402e3          	beqz	s0,2140 <core_bench_list+0x394>
    2220:	00000b13          	li	s6,0
    2224:	00000a13          	li	s4,0
    2228:	00000c93          	li	s9,0
    222c:	001c8c93          	add	s9,s9,1
    2230:	00040713          	mv	a4,s0
    2234:	00000493          	li	s1,0
    2238:	0154d863          	bge	s1,s5,2248 <core_bench_list+0x49c>
    223c:	00072703          	lw	a4,0(a4)
    2240:	00148493          	add	s1,s1,1
    2244:	fe071ae3          	bnez	a4,2238 <core_bench_list+0x48c>
    2248:	000a0993          	mv	s3,s4
    224c:	000a8d93          	mv	s11,s5
    2250:	00040a13          	mv	s4,s0
    2254:	00070413          	mv	s0,a4
    2258:	02905463          	blez	s1,2280 <core_bench_list+0x4d4>
    225c:	060d8063          	beqz	s11,22bc <core_bench_list+0x510>
    2260:	02041663          	bnez	s0,228c <core_bench_list+0x4e0>
    2264:	000a0713          	mv	a4,s4
    2268:	fff48493          	add	s1,s1,-1
    226c:	000a2a03          	lw	s4,0(s4)
    2270:	04098063          	beqz	s3,22b0 <core_bench_list+0x504>
    2274:	00e9a023          	sw	a4,0(s3)
    2278:	00070993          	mv	s3,a4
    227c:	fe9040e3          	bgtz	s1,225c <core_bench_list+0x4b0>
    2280:	0db05263          	blez	s11,2344 <core_bench_list+0x598>
    2284:	06040863          	beqz	s0,22f4 <core_bench_list+0x548>
    2288:	08048c63          	beqz	s1,2320 <core_bench_list+0x574>
    228c:	00442583          	lw	a1,4(s0)
    2290:	004a2503          	lw	a0,4(s4)
    2294:	000b8613          	mv	a2,s7
    2298:	8b9ff0ef          	jal	1b50 <cmp_complex>
    229c:	fca054e3          	blez	a0,2264 <core_bench_list+0x4b8>
    22a0:	00040713          	mv	a4,s0
    22a4:	fffd8d93          	add	s11,s11,-1
    22a8:	00042403          	lw	s0,0(s0)
    22ac:	fc0994e3          	bnez	s3,2274 <core_bench_list+0x4c8>
    22b0:	00070b13          	mv	s6,a4
    22b4:	00070993          	mv	s3,a4
    22b8:	fc5ff06f          	j	227c <core_bench_list+0x4d0>
    22bc:	000a2783          	lw	a5,0(s4)
    22c0:	fff48493          	add	s1,s1,-1
    22c4:	02098063          	beqz	s3,22e4 <core_bench_list+0x538>
    22c8:	0149a023          	sw	s4,0(s3)
    22cc:	02048063          	beqz	s1,22ec <core_bench_list+0x540>
    22d0:	000a0993          	mv	s3,s4
    22d4:	00078a13          	mv	s4,a5
    22d8:	000a2783          	lw	a5,0(s4)
    22dc:	fff48493          	add	s1,s1,-1
    22e0:	fe0994e3          	bnez	s3,22c8 <core_bench_list+0x51c>
    22e4:	000a0b13          	mv	s6,s4
    22e8:	fe0494e3          	bnez	s1,22d0 <core_bench_list+0x524>
    22ec:	f40410e3          	bnez	s0,222c <core_bench_list+0x480>
    22f0:	000a0993          	mv	s3,s4
    22f4:	0009a023          	sw	zero,0(s3)
    22f8:	00100793          	li	a5,1
    22fc:	06fc8063          	beq	s9,a5,235c <core_bench_list+0x5b0>
    2300:	001a9a93          	sll	s5,s5,0x1
    2304:	000b0413          	mv	s0,s6
    2308:	f15ff06f          	j	221c <core_bench_list+0x470>
    230c:	00040b13          	mv	s6,s0
    2310:	020d8263          	beqz	s11,2334 <core_bench_list+0x588>
    2314:	00040993          	mv	s3,s0
    2318:	fc070ee3          	beqz	a4,22f4 <core_bench_list+0x548>
    231c:	00070413          	mv	s0,a4
    2320:	00042703          	lw	a4,0(s0)
    2324:	fffd8d93          	add	s11,s11,-1
    2328:	fe0982e3          	beqz	s3,230c <core_bench_list+0x560>
    232c:	0089a023          	sw	s0,0(s3)
    2330:	fe0d92e3          	bnez	s11,2314 <core_bench_list+0x568>
    2334:	00040a13          	mv	s4,s0
    2338:	00070413          	mv	s0,a4
    233c:	ee0418e3          	bnez	s0,222c <core_bench_list+0x480>
    2340:	fb1ff06f          	j	22f0 <core_bench_list+0x544>
    2344:	00098a13          	mv	s4,s3
    2348:	ee0412e3          	bnez	s0,222c <core_bench_list+0x480>
    234c:	fa5ff06f          	j	22f0 <core_bench_list+0x544>
    2350:	00058d13          	mv	s10,a1
    2354:	00000913          	li	s2,0
    2358:	c19ff06f          	j	1f70 <core_bench_list+0x1c4>
    235c:	000b0413          	mv	s0,s6
    2360:	c15ff06f          	j	1f74 <core_bench_list+0x1c8>
    2364:	02040263          	beqz	s0,2388 <core_bench_list+0x5dc>
    2368:	00058613          	mv	a2,a1
    236c:	00040793          	mv	a5,s0
    2370:	00000593          	li	a1,0
    2374:	00000893          	li	a7,0
    2378:	00000513          	li	a0,0
    237c:	00000913          	li	s2,0
    2380:	00000693          	li	a3,0
    2384:	b6dff06f          	j	1ef0 <core_bench_list+0x144>
    2388:	00002783          	lw	a5,0(zero) # 0 <_start-0x1000>
    238c:	00100073          	ebreak

00002390 <core_list_init>:
    2390:	ccccd737          	lui	a4,0xccccd
    2394:	ccd70713          	add	a4,a4,-819 # cccccccd <stack_top+0x4ccacccd>
    2398:	02e537b3          	mulhu	a5,a0,a4
    239c:	ffff8537          	lui	a0,0xffff8
    23a0:	0005a023          	sw	zero,0(a1)
    23a4:	08050513          	add	a0,a0,128 # ffff8080 <stack_top+0x7ffd8080>
    23a8:	01058813          	add	a6,a1,16
    23ac:	00060e93          	mv	t4,a2
    23b0:	00858693          	add	a3,a1,8
    23b4:	0047d793          	srl	a5,a5,0x4
    23b8:	ffe78713          	add	a4,a5,-2
    23bc:	00371893          	sll	a7,a4,0x3
    23c0:	011588b3          	add	a7,a1,a7
    23c4:	0115a223          	sw	a7,4(a1)
    23c8:	00a89023          	sh	a0,0(a7)
    23cc:	00271f93          	sll	t6,a4,0x2
    23d0:	00089123          	sh	zero,2(a7)
    23d4:	01f88fb3          	add	t6,a7,t6
    23d8:	00488513          	add	a0,a7,4
    23dc:	ffff87b7          	lui	a5,0xffff8
    23e0:	2b187e63          	bgeu	a6,a7,269c <core_list_init+0x30c>
    23e4:	00888313          	add	t1,a7,8
    23e8:	2bf37a63          	bgeu	t1,t6,269c <core_list_init+0x30c>
    23ec:	00d5a023          	sw	a3,0(a1)
    23f0:	00a5a623          	sw	a0,12(a1)
    23f4:	0005a423          	sw	zero,8(a1)
    23f8:	fff7c793          	not	a5,a5
    23fc:	fff00e13          	li	t3,-1
    2400:	00068613          	mv	a2,a3
    2404:	00f89323          	sh	a5,6(a7)
    2408:	00030513          	mv	a0,t1
    240c:	00080693          	mv	a3,a6
    2410:	01c89223          	sh	t3,4(a7)
    2414:	06070e63          	beqz	a4,2490 <core_list_init+0x100>
    2418:	010e9393          	sll	t2,t4,0x10
    241c:	ffff82b7          	lui	t0,0xffff8
    2420:	00868e13          	add	t3,a3,8
    2424:	0103d393          	srl	t2,t2,0x10
    2428:	fff2c293          	not	t0,t0
    242c:	00000813          	li	a6,0
    2430:	071e7063          	bgeu	t3,a7,2490 <core_list_init+0x100>
    2434:	00450f13          	add	t5,a0,4
    2438:	27ff7663          	bgeu	t5,t6,26a4 <core_list_init+0x314>
    243c:	01081313          	sll	t1,a6,0x10
    2440:	01035313          	srl	t1,t1,0x10
    2444:	0063c7b3          	xor	a5,t2,t1
    2448:	00379793          	sll	a5,a5,0x3
    244c:	0787f793          	and	a5,a5,120
    2450:	00737313          	and	t1,t1,7
    2454:	00c6a023          	sw	a2,0(a3)
    2458:	0067e7b3          	or	a5,a5,t1
    245c:	00d5a023          	sw	a3,0(a1)
    2460:	00879613          	sll	a2,a5,0x8
    2464:	00a6a223          	sw	a0,4(a3)
    2468:	00c787b3          	add	a5,a5,a2
    246c:	00551123          	sh	t0,2(a0)
    2470:	00180813          	add	a6,a6,1
    2474:	00f51023          	sh	a5,0(a0)
    2478:	21070a63          	beq	a4,a6,268c <core_list_init+0x2fc>
    247c:	00068613          	mv	a2,a3
    2480:	000e0693          	mv	a3,t3
    2484:	00868e13          	add	t3,a3,8
    2488:	000f0513          	mv	a0,t5
    248c:	fb1e64e3          	bltu	t3,a7,2434 <core_list_init+0xa4>
    2490:	00062503          	lw	a0,0(a2)
    2494:	08050063          	beqz	a0,2514 <core_list_init+0x184>
    2498:	ccccd7b7          	lui	a5,0xccccd
    249c:	ccd78793          	add	a5,a5,-819 # cccccccd <stack_top+0x4ccacccd>
    24a0:	02f73733          	mulhu	a4,a4,a5
    24a4:	00004337          	lui	t1,0x4
    24a8:	fff30313          	add	t1,t1,-1 # 3fff <crcu32+0x6f>
    24ac:	20000793          	li	a5,512
    24b0:	00100693          	li	a3,1
    24b4:	00275713          	srl	a4,a4,0x2
    24b8:	0280006f          	j	24e0 <core_list_init+0x150>
    24bc:	00052803          	lw	a6,0(a0)
    24c0:	10078793          	add	a5,a5,256
    24c4:	00d89123          	sh	a3,2(a7)
    24c8:	01079793          	sll	a5,a5,0x10
    24cc:	0107d793          	srl	a5,a5,0x10
    24d0:	00168693          	add	a3,a3,1
    24d4:	04080063          	beqz	a6,2514 <core_list_init+0x184>
    24d8:	00050613          	mv	a2,a0
    24dc:	00080513          	mv	a0,a6
    24e0:	00462883          	lw	a7,4(a2)
    24e4:	fce6ece3          	bltu	a3,a4,24bc <core_list_init+0x12c>
    24e8:	00dec833          	xor	a6,t4,a3
    24ec:	7007f613          	and	a2,a5,1792
    24f0:	01066633          	or	a2,a2,a6
    24f4:	00052803          	lw	a6,0(a0)
    24f8:	00667633          	and	a2,a2,t1
    24fc:	10078793          	add	a5,a5,256
    2500:	01079793          	sll	a5,a5,0x10
    2504:	00c89123          	sh	a2,2(a7)
    2508:	0107d793          	srl	a5,a5,0x10
    250c:	00168693          	add	a3,a3,1
    2510:	fc0814e3          	bnez	a6,24d8 <core_list_init+0x148>
    2514:	00100f93          	li	t6,1
    2518:	000f8393          	mv	t2,t6
    251c:	00000513          	li	a0,0
    2520:	00000693          	li	a3,0
    2524:	00000293          	li	t0,0
    2528:	00128293          	add	t0,t0,1 # ffff8001 <stack_top+0x7ffd8001>
    252c:	00058713          	mv	a4,a1
    2530:	00000793          	li	a5,0
    2534:	01f7d863          	bge	a5,t6,2544 <core_list_init+0x1b4>
    2538:	00072703          	lw	a4,0(a4)
    253c:	00178793          	add	a5,a5,1
    2540:	fe071ae3          	bnez	a4,2534 <core_list_init+0x1a4>
    2544:	000f8813          	mv	a6,t6
    2548:	02f05463          	blez	a5,2570 <core_list_init+0x1e0>
    254c:	08080c63          	beqz	a6,25e4 <core_list_init+0x254>
    2550:	02071663          	bnez	a4,257c <core_list_init+0x1ec>
    2554:	00058613          	mv	a2,a1
    2558:	fff78793          	add	a5,a5,-1
    255c:	0005a583          	lw	a1,0(a1)
    2560:	06068c63          	beqz	a3,25d8 <core_list_init+0x248>
    2564:	00c6a023          	sw	a2,0(a3)
    2568:	00060693          	mv	a3,a2
    256c:	fef040e3          	bgtz	a5,254c <core_list_init+0x1bc>
    2570:	13005263          	blez	a6,2694 <core_list_init+0x304>
    2574:	0e070463          	beqz	a4,265c <core_list_init+0x2cc>
    2578:	0c078263          	beqz	a5,263c <core_list_init+0x2ac>
    257c:	0045a303          	lw	t1,4(a1)
    2580:	00472883          	lw	a7,4(a4)
    2584:	00031603          	lh	a2,0(t1)
    2588:	00289e83          	lh	t4,2(a7)
    258c:	00231f03          	lh	t5,2(t1)
    2590:	01061e13          	sll	t3,a2,0x10
    2594:	010e5e13          	srl	t3,t3,0x10
    2598:	f0067613          	and	a2,a2,-256
    259c:	008e5e13          	srl	t3,t3,0x8
    25a0:	01c66633          	or	a2,a2,t3
    25a4:	00c31023          	sh	a2,0(t1)
    25a8:	00089603          	lh	a2,0(a7)
    25ac:	01061313          	sll	t1,a2,0x10
    25b0:	01035313          	srl	t1,t1,0x10
    25b4:	f0067613          	and	a2,a2,-256
    25b8:	00835313          	srl	t1,t1,0x8
    25bc:	00666633          	or	a2,a2,t1
    25c0:	00c89023          	sh	a2,0(a7)
    25c4:	f9eed8e3          	bge	t4,t5,2554 <core_list_init+0x1c4>
    25c8:	00070613          	mv	a2,a4
    25cc:	fff80813          	add	a6,a6,-1
    25d0:	00072703          	lw	a4,0(a4)
    25d4:	f80698e3          	bnez	a3,2564 <core_list_init+0x1d4>
    25d8:	00060513          	mv	a0,a2
    25dc:	00060693          	mv	a3,a2
    25e0:	f8dff06f          	j	256c <core_list_init+0x1dc>
    25e4:	0005a603          	lw	a2,0(a1)
    25e8:	fff78793          	add	a5,a5,-1
    25ec:	02068063          	beqz	a3,260c <core_list_init+0x27c>
    25f0:	00b6a023          	sw	a1,0(a3)
    25f4:	02078063          	beqz	a5,2614 <core_list_init+0x284>
    25f8:	00058693          	mv	a3,a1
    25fc:	00060593          	mv	a1,a2
    2600:	0005a603          	lw	a2,0(a1)
    2604:	fff78793          	add	a5,a5,-1
    2608:	fe0694e3          	bnez	a3,25f0 <core_list_init+0x260>
    260c:	00058513          	mv	a0,a1
    2610:	fe0794e3          	bnez	a5,25f8 <core_list_init+0x268>
    2614:	00058693          	mv	a3,a1
    2618:	04070263          	beqz	a4,265c <core_list_init+0x2cc>
    261c:	00058693          	mv	a3,a1
    2620:	00070593          	mv	a1,a4
    2624:	f05ff06f          	j	2528 <core_list_init+0x198>
    2628:	00070513          	mv	a0,a4
    262c:	02080263          	beqz	a6,2650 <core_list_init+0x2c0>
    2630:	00070693          	mv	a3,a4
    2634:	02078463          	beqz	a5,265c <core_list_init+0x2cc>
    2638:	00078713          	mv	a4,a5
    263c:	00072783          	lw	a5,0(a4)
    2640:	fff80813          	add	a6,a6,-1
    2644:	fe0682e3          	beqz	a3,2628 <core_list_init+0x298>
    2648:	00e6a023          	sw	a4,0(a3)
    264c:	fe0812e3          	bnez	a6,2630 <core_list_init+0x2a0>
    2650:	00070593          	mv	a1,a4
    2654:	00078713          	mv	a4,a5
    2658:	fbdff06f          	j	2614 <core_list_init+0x284>
    265c:	0006a023          	sw	zero,0(a3)
    2660:	02728463          	beq	t0,t2,2688 <core_list_init+0x2f8>
    2664:	001f9f93          	sll	t6,t6,0x1
    2668:	00050c63          	beqz	a0,2680 <core_list_init+0x2f0>
    266c:	00050713          	mv	a4,a0
    2670:	00000593          	li	a1,0
    2674:	00000513          	li	a0,0
    2678:	00000293          	li	t0,0
    267c:	fa1ff06f          	j	261c <core_list_init+0x28c>
    2680:	00002023          	sw	zero,0(zero) # 0 <_start-0x1000>
    2684:	00100073          	ebreak
    2688:	00008067          	ret
    268c:	00068613          	mv	a2,a3
    2690:	e01ff06f          	j	2490 <core_list_init+0x100>
    2694:	00068593          	mv	a1,a3
    2698:	f7dff06f          	j	2614 <core_list_init+0x284>
    269c:	00000613          	li	a2,0
    26a0:	d75ff06f          	j	2414 <core_list_init+0x84>
    26a4:	00180813          	add	a6,a6,1
    26a8:	df0704e3          	beq	a4,a6,2490 <core_list_init+0x100>
    26ac:	00068e13          	mv	t3,a3
    26b0:	00050f13          	mv	t5,a0
    26b4:	00060693          	mv	a3,a2
    26b8:	dc5ff06f          	j	247c <core_list_init+0xec>

000026bc <core_list_insert_new>:
    26bc:	00062803          	lw	a6,0(a2)
    26c0:	00880893          	add	a7,a6,8
    26c4:	04e8f663          	bgeu	a7,a4,2710 <core_list_insert_new+0x54>
    26c8:	0006a703          	lw	a4,0(a3)
    26cc:	00470313          	add	t1,a4,4
    26d0:	04f37063          	bgeu	t1,a5,2710 <core_list_insert_new+0x54>
    26d4:	01162023          	sw	a7,0(a2)
    26d8:	00052783          	lw	a5,0(a0)
    26dc:	00059883          	lh	a7,0(a1)
    26e0:	00259603          	lh	a2,2(a1)
    26e4:	00f82023          	sw	a5,0(a6)
    26e8:	01052023          	sw	a6,0(a0)
    26ec:	00e82223          	sw	a4,4(a6)
    26f0:	0006a783          	lw	a5,0(a3)
    26f4:	00080513          	mv	a0,a6
    26f8:	00478793          	add	a5,a5,4
    26fc:	00f6a023          	sw	a5,0(a3)
    2700:	00482783          	lw	a5,4(a6)
    2704:	01179023          	sh	a7,0(a5)
    2708:	00c79123          	sh	a2,2(a5)
    270c:	00008067          	ret
    2710:	00000813          	li	a6,0
    2714:	00080513          	mv	a0,a6
    2718:	00008067          	ret

0000271c <core_list_remove>:
    271c:	00050793          	mv	a5,a0
    2720:	00052503          	lw	a0,0(a0)
    2724:	0047a683          	lw	a3,4(a5)
    2728:	00452603          	lw	a2,4(a0)
    272c:	00052703          	lw	a4,0(a0)
    2730:	00c7a223          	sw	a2,4(a5)
    2734:	00d52223          	sw	a3,4(a0)
    2738:	00e7a023          	sw	a4,0(a5)
    273c:	00052023          	sw	zero,0(a0)
    2740:	00008067          	ret

00002744 <core_list_undo_remove>:
    2744:	0045a603          	lw	a2,4(a1)
    2748:	00452683          	lw	a3,4(a0)
    274c:	0005a703          	lw	a4,0(a1)
    2750:	00c52223          	sw	a2,4(a0)
    2754:	00d5a223          	sw	a3,4(a1)
    2758:	00e52023          	sw	a4,0(a0)
    275c:	00a5a023          	sw	a0,0(a1)
    2760:	00008067          	ret

00002764 <core_list_find>:
    2764:	00259703          	lh	a4,2(a1)
    2768:	02074263          	bltz	a4,278c <core_list_find+0x28>
    276c:	00051863          	bnez	a0,277c <core_list_find+0x18>
    2770:	00008067          	ret
    2774:	00052503          	lw	a0,0(a0)
    2778:	02050c63          	beqz	a0,27b0 <core_list_find+0x4c>
    277c:	00452783          	lw	a5,4(a0)
    2780:	00279783          	lh	a5,2(a5)
    2784:	fee798e3          	bne	a5,a4,2774 <core_list_find+0x10>
    2788:	00008067          	ret
    278c:	02050263          	beqz	a0,27b0 <core_list_find+0x4c>
    2790:	00059703          	lh	a4,0(a1)
    2794:	00c0006f          	j	27a0 <core_list_find+0x3c>
    2798:	00052503          	lw	a0,0(a0)
    279c:	00050c63          	beqz	a0,27b4 <core_list_find+0x50>
    27a0:	00452783          	lw	a5,4(a0)
    27a4:	0007c783          	lbu	a5,0(a5)
    27a8:	fee798e3          	bne	a5,a4,2798 <core_list_find+0x34>
    27ac:	00008067          	ret
    27b0:	00000513          	li	a0,0
    27b4:	00008067          	ret

000027b8 <core_list_reverse>:
    27b8:	02050063          	beqz	a0,27d8 <core_list_reverse+0x20>
    27bc:	00000713          	li	a4,0
    27c0:	0080006f          	j	27c8 <core_list_reverse+0x10>
    27c4:	00078513          	mv	a0,a5
    27c8:	00052783          	lw	a5,0(a0)
    27cc:	00e52023          	sw	a4,0(a0)
    27d0:	00050713          	mv	a4,a0
    27d4:	fe0798e3          	bnez	a5,27c4 <core_list_reverse+0xc>
    27d8:	00008067          	ret

000027dc <core_list_mergesort>:
    27dc:	fd010113          	add	sp,sp,-48
    27e0:	01312e23          	sw	s3,28(sp)
    27e4:	01512a23          	sw	s5,20(sp)
    27e8:	01712623          	sw	s7,12(sp)
    27ec:	01812423          	sw	s8,8(sp)
    27f0:	01a12023          	sw	s10,0(sp)
    27f4:	00100a93          	li	s5,1
    27f8:	02112623          	sw	ra,44(sp)
    27fc:	02812423          	sw	s0,40(sp)
    2800:	02912223          	sw	s1,36(sp)
    2804:	03212023          	sw	s2,32(sp)
    2808:	01412c23          	sw	s4,24(sp)
    280c:	01612823          	sw	s6,16(sp)
    2810:	01912223          	sw	s9,4(sp)
    2814:	00050993          	mv	s3,a0
    2818:	00058c13          	mv	s8,a1
    281c:	00060b93          	mv	s7,a2
    2820:	000a8d13          	mv	s10,s5
    2824:	0e098663          	beqz	s3,2910 <core_list_mergesort+0x134>
    2828:	00000c93          	li	s9,0
    282c:	00000913          	li	s2,0
    2830:	00000b13          	li	s6,0
    2834:	001c8c93          	add	s9,s9,1
    2838:	00098793          	mv	a5,s3
    283c:	00000413          	li	s0,0
    2840:	01545863          	bge	s0,s5,2850 <core_list_mergesort+0x74>
    2844:	0007a783          	lw	a5,0(a5)
    2848:	00140413          	add	s0,s0,1
    284c:	fe079ae3          	bnez	a5,2840 <core_list_mergesort+0x64>
    2850:	00090493          	mv	s1,s2
    2854:	000a8a13          	mv	s4,s5
    2858:	00098913          	mv	s2,s3
    285c:	00078993          	mv	s3,a5
    2860:	02805463          	blez	s0,2888 <core_list_mergesort+0xac>
    2864:	060a0063          	beqz	s4,28c4 <core_list_mergesort+0xe8>
    2868:	02099663          	bnez	s3,2894 <core_list_mergesort+0xb8>
    286c:	00090793          	mv	a5,s2
    2870:	fff40413          	add	s0,s0,-1
    2874:	00092903          	lw	s2,0(s2)
    2878:	04048063          	beqz	s1,28b8 <core_list_mergesort+0xdc>
    287c:	00f4a023          	sw	a5,0(s1)
    2880:	00078493          	mv	s1,a5
    2884:	fe8040e3          	bgtz	s0,2864 <core_list_mergesort+0x88>
    2888:	11405263          	blez	s4,298c <core_list_mergesort+0x1b0>
    288c:	06098863          	beqz	s3,28fc <core_list_mergesort+0x120>
    2890:	08040e63          	beqz	s0,292c <core_list_mergesort+0x150>
    2894:	0049a583          	lw	a1,4(s3)
    2898:	00492503          	lw	a0,4(s2)
    289c:	000b8613          	mv	a2,s7
    28a0:	000c00e7          	jalr	s8
    28a4:	fca054e3          	blez	a0,286c <core_list_mergesort+0x90>
    28a8:	00098793          	mv	a5,s3
    28ac:	fffa0a13          	add	s4,s4,-1
    28b0:	0009a983          	lw	s3,0(s3)
    28b4:	fc0494e3          	bnez	s1,287c <core_list_mergesort+0xa0>
    28b8:	00078b13          	mv	s6,a5
    28bc:	00078493          	mv	s1,a5
    28c0:	fc5ff06f          	j	2884 <core_list_mergesort+0xa8>
    28c4:	00092783          	lw	a5,0(s2)
    28c8:	fff40413          	add	s0,s0,-1
    28cc:	02048063          	beqz	s1,28ec <core_list_mergesort+0x110>
    28d0:	0124a023          	sw	s2,0(s1)
    28d4:	02040063          	beqz	s0,28f4 <core_list_mergesort+0x118>
    28d8:	00090493          	mv	s1,s2
    28dc:	00078913          	mv	s2,a5
    28e0:	00092783          	lw	a5,0(s2)
    28e4:	fff40413          	add	s0,s0,-1
    28e8:	fe0494e3          	bnez	s1,28d0 <core_list_mergesort+0xf4>
    28ec:	00090b13          	mv	s6,s2
    28f0:	fe0414e3          	bnez	s0,28d8 <core_list_mergesort+0xfc>
    28f4:	f40990e3          	bnez	s3,2834 <core_list_mergesort+0x58>
    28f8:	00090493          	mv	s1,s2
    28fc:	0004a023          	sw	zero,0(s1)
    2900:	05ac8863          	beq	s9,s10,2950 <core_list_mergesort+0x174>
    2904:	000b0993          	mv	s3,s6
    2908:	001a9a93          	sll	s5,s5,0x1
    290c:	f0099ee3          	bnez	s3,2828 <core_list_mergesort+0x4c>
    2910:	00002023          	sw	zero,0(zero) # 0 <_start-0x1000>
    2914:	00100073          	ebreak
    2918:	00098b13          	mv	s6,s3
    291c:	020a0263          	beqz	s4,2940 <core_list_mergesort+0x164>
    2920:	00098493          	mv	s1,s3
    2924:	fc078ce3          	beqz	a5,28fc <core_list_mergesort+0x120>
    2928:	00078993          	mv	s3,a5
    292c:	0009a783          	lw	a5,0(s3)
    2930:	fffa0a13          	add	s4,s4,-1
    2934:	fe0482e3          	beqz	s1,2918 <core_list_mergesort+0x13c>
    2938:	0134a023          	sw	s3,0(s1)
    293c:	fe0a12e3          	bnez	s4,2920 <core_list_mergesort+0x144>
    2940:	00098913          	mv	s2,s3
    2944:	00078993          	mv	s3,a5
    2948:	ee0996e3          	bnez	s3,2834 <core_list_mergesort+0x58>
    294c:	fadff06f          	j	28f8 <core_list_mergesort+0x11c>
    2950:	02c12083          	lw	ra,44(sp)
    2954:	02812403          	lw	s0,40(sp)
    2958:	02412483          	lw	s1,36(sp)
    295c:	02012903          	lw	s2,32(sp)
    2960:	01c12983          	lw	s3,28(sp)
    2964:	01812a03          	lw	s4,24(sp)
    2968:	01412a83          	lw	s5,20(sp)
    296c:	00c12b83          	lw	s7,12(sp)
    2970:	00812c03          	lw	s8,8(sp)
    2974:	00412c83          	lw	s9,4(sp)
    2978:	00012d03          	lw	s10,0(sp)
    297c:	000b0513          	mv	a0,s6
    2980:	01012b03          	lw	s6,16(sp)
    2984:	03010113          	add	sp,sp,48
    2988:	00008067          	ret
    298c:	00048913          	mv	s2,s1
    2990:	ea0992e3          	bnez	s3,2834 <core_list_mergesort+0x58>
    2994:	f65ff06f          	j	28f8 <core_list_mergesort+0x11c>

00002998 <iterate>:
    2998:	ff010113          	add	sp,sp,-16
    299c:	01212023          	sw	s2,0(sp)
    29a0:	01c52903          	lw	s2,28(a0)
    29a4:	00112623          	sw	ra,12(sp)
    29a8:	02052c23          	sw	zero,56(a0)
    29ac:	02052e23          	sw	zero,60(a0)
    29b0:	08090a63          	beqz	s2,2a44 <iterate+0xac>
    29b4:	00100593          	li	a1,1
    29b8:	00812423          	sw	s0,8(sp)
    29bc:	00912223          	sw	s1,4(sp)
    29c0:	00050413          	mv	s0,a0
    29c4:	be8ff0ef          	jal	1dac <core_bench_list>
    29c8:	03845583          	lhu	a1,56(s0)
    29cc:	00100493          	li	s1,1
    29d0:	374010ef          	jal	3d44 <crcu16>
    29d4:	02a41c23          	sh	a0,56(s0)
    29d8:	fff00593          	li	a1,-1
    29dc:	00040513          	mv	a0,s0
    29e0:	bccff0ef          	jal	1dac <core_bench_list>
    29e4:	03845583          	lhu	a1,56(s0)
    29e8:	35c010ef          	jal	3d44 <crcu16>
    29ec:	01051793          	sll	a5,a0,0x10
    29f0:	0107d793          	srl	a5,a5,0x10
    29f4:	01051513          	sll	a0,a0,0x10
    29f8:	00a7e7b3          	or	a5,a5,a0
    29fc:	02f42c23          	sw	a5,56(s0)
    2a00:	02990e63          	beq	s2,s1,2a3c <iterate+0xa4>
    2a04:	00100593          	li	a1,1
    2a08:	00040513          	mv	a0,s0
    2a0c:	ba0ff0ef          	jal	1dac <core_bench_list>
    2a10:	03845583          	lhu	a1,56(s0)
    2a14:	00148493          	add	s1,s1,1
    2a18:	32c010ef          	jal	3d44 <crcu16>
    2a1c:	02a41c23          	sh	a0,56(s0)
    2a20:	fff00593          	li	a1,-1
    2a24:	00040513          	mv	a0,s0
    2a28:	b84ff0ef          	jal	1dac <core_bench_list>
    2a2c:	03845583          	lhu	a1,56(s0)
    2a30:	314010ef          	jal	3d44 <crcu16>
    2a34:	02a41c23          	sh	a0,56(s0)
    2a38:	fc9916e3          	bne	s2,s1,2a04 <iterate+0x6c>
    2a3c:	00812403          	lw	s0,8(sp)
    2a40:	00412483          	lw	s1,4(sp)
    2a44:	00c12083          	lw	ra,12(sp)
    2a48:	00012903          	lw	s2,0(sp)
    2a4c:	00000513          	li	a0,0
    2a50:	01010113          	add	sp,sp,16
    2a54:	00008067          	ret

00002a58 <matrix_test>:
    2a58:	fd010113          	add	sp,sp,-48
    2a5c:	03212023          	sw	s2,32(sp)
    2a60:	02112623          	sw	ra,44(sp)
    2a64:	fffff937          	lui	s2,0xfffff
    2a68:	01276933          	or	s2,a4,s2
    2a6c:	48050e63          	beqz	a0,2f08 <matrix_test+0x4b0>
    2a70:	02912223          	sw	s1,36(sp)
    2a74:	00151493          	sll	s1,a0,0x1
    2a78:	01312e23          	sw	s3,28(sp)
    2a7c:	01412c23          	sw	s4,24(sp)
    2a80:	01712623          	sw	s7,12(sp)
    2a84:	40a00a33          	neg	s4,a0
    2a88:	00060b93          	mv	s7,a2
    2a8c:	01071993          	sll	s3,a4,0x10
    2a90:	00960633          	add	a2,a2,s1
    2a94:	01512a23          	sw	s5,20(sp)
    2a98:	01612823          	sw	s6,16(sp)
    2a9c:	02812423          	sw	s0,40(sp)
    2aa0:	00068b13          	mv	s6,a3
    2aa4:	01812423          	sw	s8,8(sp)
    2aa8:	00070893          	mv	a7,a4
    2aac:	00050313          	mv	t1,a0
    2ab0:	00058a93          	mv	s5,a1
    2ab4:	00060693          	mv	a3,a2
    2ab8:	002a1a13          	sll	s4,s4,0x2
    2abc:	0109d993          	srl	s3,s3,0x10
    2ac0:	00000813          	li	a6,0
    2ac4:	409685b3          	sub	a1,a3,s1
    2ac8:	00058793          	mv	a5,a1
    2acc:	0007d703          	lhu	a4,0(a5)
    2ad0:	00278793          	add	a5,a5,2
    2ad4:	00e98733          	add	a4,s3,a4
    2ad8:	fee79f23          	sh	a4,-2(a5)
    2adc:	fed798e3          	bne	a5,a3,2acc <matrix_test+0x74>
    2ae0:	00180413          	add	s0,a6,1
    2ae4:	414586b3          	sub	a3,a1,s4
    2ae8:	00830663          	beq	t1,s0,2af4 <matrix_test+0x9c>
    2aec:	00040813          	mv	a6,s0
    2af0:	fd5ff06f          	j	2ac4 <matrix_test+0x6c>
    2af4:	00000593          	li	a1,0
    2af8:	00000513          	li	a0,0
    2afc:	40960333          	sub	t1,a2,s1
    2b00:	00259693          	sll	a3,a1,0x2
    2b04:	00030793          	mv	a5,t1
    2b08:	015686b3          	add	a3,a3,s5
    2b0c:	00079703          	lh	a4,0(a5)
    2b10:	00278793          	add	a5,a5,2
    2b14:	00468693          	add	a3,a3,4
    2b18:	03170733          	mul	a4,a4,a7
    2b1c:	fee6ae23          	sw	a4,-4(a3)
    2b20:	fef616e3          	bne	a2,a5,2b0c <matrix_test+0xb4>
    2b24:	008585b3          	add	a1,a1,s0
    2b28:	41430633          	sub	a2,t1,s4
    2b2c:	00150793          	add	a5,a0,1
    2b30:	01050663          	beq	a0,a6,2b3c <matrix_test+0xe4>
    2b34:	00078513          	mv	a0,a5
    2b38:	fc5ff06f          	j	2afc <matrix_test+0xa4>
    2b3c:	414a8c33          	sub	s8,s5,s4
    2b40:	40800eb3          	neg	t4,s0
    2b44:	000c0893          	mv	a7,s8
    2b48:	003e9e93          	sll	t4,t4,0x3
    2b4c:	00000693          	li	a3,0
    2b50:	00000593          	li	a1,0
    2b54:	00000513          	li	a0,0
    2b58:	00000313          	li	t1,0
    2b5c:	01488e33          	add	t3,a7,s4
    2b60:	000e0713          	mv	a4,t3
    2b64:	0140006f          	j	2b78 <matrix_test+0x120>
    2b68:	01079513          	sll	a0,a5,0x10
    2b6c:	00470713          	add	a4,a4,4
    2b70:	41055513          	sra	a0,a0,0x10
    2b74:	02e88e63          	beq	a7,a4,2bb0 <matrix_test+0x158>
    2b78:	00068613          	mv	a2,a3
    2b7c:	01051793          	sll	a5,a0,0x10
    2b80:	00072683          	lw	a3,0(a4)
    2b84:	0107d793          	srl	a5,a5,0x10
    2b88:	00a78513          	add	a0,a5,10
    2b8c:	00d62633          	slt	a2,a2,a3
    2b90:	01051513          	sll	a0,a0,0x10
    2b94:	00d585b3          	add	a1,a1,a3
    2b98:	41055513          	sra	a0,a0,0x10
    2b9c:	00c787b3          	add	a5,a5,a2
    2ba0:	fcb954e3          	bge	s2,a1,2b68 <matrix_test+0x110>
    2ba4:	00470713          	add	a4,a4,4
    2ba8:	00000593          	li	a1,0
    2bac:	fce896e3          	bne	a7,a4,2b78 <matrix_test+0x120>
    2bb0:	41de08b3          	sub	a7,t3,t4
    2bb4:	00130793          	add	a5,t1,1
    2bb8:	00680663          	beq	a6,t1,2bc4 <matrix_test+0x16c>
    2bbc:	00078313          	mv	t1,a5
    2bc0:	f9dff06f          	j	2b5c <matrix_test+0x104>
    2bc4:	00000593          	li	a1,0
    2bc8:	071010ef          	jal	4438 <crc16>
    2bcc:	00050593          	mv	a1,a0
    2bd0:	009b0833          	add	a6,s6,s1
    2bd4:	000a8893          	mv	a7,s5
    2bd8:	00000313          	li	t1,0
    2bdc:	00131693          	sll	a3,t1,0x1
    2be0:	00db86b3          	add	a3,s7,a3
    2be4:	000b0793          	mv	a5,s6
    2be8:	00000613          	li	a2,0
    2bec:	00069703          	lh	a4,0(a3)
    2bf0:	00079503          	lh	a0,0(a5)
    2bf4:	00278793          	add	a5,a5,2
    2bf8:	00268693          	add	a3,a3,2
    2bfc:	02a70733          	mul	a4,a4,a0
    2c00:	00e60633          	add	a2,a2,a4
    2c04:	ff0794e3          	bne	a5,a6,2bec <matrix_test+0x194>
    2c08:	00c8a023          	sw	a2,0(a7)
    2c0c:	00488893          	add	a7,a7,4
    2c10:	00830333          	add	t1,t1,s0
    2c14:	fd8894e3          	bne	a7,s8,2bdc <matrix_test+0x184>
    2c18:	00000e13          	li	t3,0
    2c1c:	00000713          	li	a4,0
    2c20:	00000613          	li	a2,0
    2c24:	00000513          	li	a0,0
    2c28:	00000313          	li	t1,0
    2c2c:	002e1813          	sll	a6,t3,0x2
    2c30:	010a8833          	add	a6,s5,a6
    2c34:	00000893          	li	a7,0
    2c38:	0180006f          	j	2c50 <matrix_test+0x1f8>
    2c3c:	01079513          	sll	a0,a5,0x10
    2c40:	00188893          	add	a7,a7,1
    2c44:	41055513          	sra	a0,a0,0x10
    2c48:	00480813          	add	a6,a6,4
    2c4c:	0488f063          	bgeu	a7,s0,2c8c <matrix_test+0x234>
    2c50:	00070693          	mv	a3,a4
    2c54:	01051793          	sll	a5,a0,0x10
    2c58:	00082703          	lw	a4,0(a6)
    2c5c:	0107d793          	srl	a5,a5,0x10
    2c60:	00a78513          	add	a0,a5,10
    2c64:	00e6a6b3          	slt	a3,a3,a4
    2c68:	01051513          	sll	a0,a0,0x10
    2c6c:	00e60633          	add	a2,a2,a4
    2c70:	41055513          	sra	a0,a0,0x10
    2c74:	00d787b3          	add	a5,a5,a3
    2c78:	fcc952e3          	bge	s2,a2,2c3c <matrix_test+0x1e4>
    2c7c:	00188893          	add	a7,a7,1
    2c80:	00000613          	li	a2,0
    2c84:	00480813          	add	a6,a6,4
    2c88:	fc88e4e3          	bltu	a7,s0,2c50 <matrix_test+0x1f8>
    2c8c:	00130313          	add	t1,t1,1
    2c90:	008e0e33          	add	t3,t3,s0
    2c94:	f8836ce3          	bltu	t1,s0,2c2c <matrix_test+0x1d4>
    2c98:	7a0010ef          	jal	4438 <crc16>
    2c9c:	00050593          	mv	a1,a0
    2ca0:	000a8f93          	mv	t6,s5
    2ca4:	000b8e93          	mv	t4,s7
    2ca8:	00000f13          	li	t5,0
    2cac:	000b0e13          	mv	t3,s6
    2cb0:	000f8313          	mv	t1,t6
    2cb4:	00000893          	li	a7,0
    2cb8:	000e0613          	mv	a2,t3
    2cbc:	000e8693          	mv	a3,t4
    2cc0:	00000513          	li	a0,0
    2cc4:	00000713          	li	a4,0
    2cc8:	00069783          	lh	a5,0(a3)
    2ccc:	00061803          	lh	a6,0(a2)
    2cd0:	00170713          	add	a4,a4,1
    2cd4:	00268693          	add	a3,a3,2
    2cd8:	030787b3          	mul	a5,a5,a6
    2cdc:	00960633          	add	a2,a2,s1
    2ce0:	00f50533          	add	a0,a0,a5
    2ce4:	fe8762e3          	bltu	a4,s0,2cc8 <matrix_test+0x270>
    2ce8:	00a32023          	sw	a0,0(t1)
    2cec:	00188893          	add	a7,a7,1
    2cf0:	00430313          	add	t1,t1,4
    2cf4:	002e0e13          	add	t3,t3,2
    2cf8:	fc88e0e3          	bltu	a7,s0,2cb8 <matrix_test+0x260>
    2cfc:	001f0f13          	add	t5,t5,1
    2d00:	009e8eb3          	add	t4,t4,s1
    2d04:	414f8fb3          	sub	t6,t6,s4
    2d08:	fa8f62e3          	bltu	t5,s0,2cac <matrix_test+0x254>
    2d0c:	00000e13          	li	t3,0
    2d10:	00000713          	li	a4,0
    2d14:	00000613          	li	a2,0
    2d18:	00000513          	li	a0,0
    2d1c:	00000313          	li	t1,0
    2d20:	002e1813          	sll	a6,t3,0x2
    2d24:	010a8833          	add	a6,s5,a6
    2d28:	00000893          	li	a7,0
    2d2c:	0180006f          	j	2d44 <matrix_test+0x2ec>
    2d30:	01079513          	sll	a0,a5,0x10
    2d34:	00188893          	add	a7,a7,1
    2d38:	41055513          	sra	a0,a0,0x10
    2d3c:	00480813          	add	a6,a6,4
    2d40:	0488f063          	bgeu	a7,s0,2d80 <matrix_test+0x328>
    2d44:	00070693          	mv	a3,a4
    2d48:	01051793          	sll	a5,a0,0x10
    2d4c:	00082703          	lw	a4,0(a6)
    2d50:	0107d793          	srl	a5,a5,0x10
    2d54:	00a78513          	add	a0,a5,10
    2d58:	00e6a6b3          	slt	a3,a3,a4
    2d5c:	01051513          	sll	a0,a0,0x10
    2d60:	00e60633          	add	a2,a2,a4
    2d64:	41055513          	sra	a0,a0,0x10
    2d68:	00d787b3          	add	a5,a5,a3
    2d6c:	fcc952e3          	bge	s2,a2,2d30 <matrix_test+0x2d8>
    2d70:	00188893          	add	a7,a7,1
    2d74:	00000613          	li	a2,0
    2d78:	00480813          	add	a6,a6,4
    2d7c:	fc88e4e3          	bltu	a7,s0,2d44 <matrix_test+0x2ec>
    2d80:	00130313          	add	t1,t1,1
    2d84:	008e0e33          	add	t3,t3,s0
    2d88:	f8836ce3          	bltu	t1,s0,2d20 <matrix_test+0x2c8>
    2d8c:	6ac010ef          	jal	4438 <crc16>
    2d90:	00050593          	mv	a1,a0
    2d94:	000a8f93          	mv	t6,s5
    2d98:	000b8e93          	mv	t4,s7
    2d9c:	00000f13          	li	t5,0
    2da0:	000b0e13          	mv	t3,s6
    2da4:	000f8313          	mv	t1,t6
    2da8:	00000893          	li	a7,0
    2dac:	000e0513          	mv	a0,t3
    2db0:	000e8613          	mv	a2,t4
    2db4:	00000813          	li	a6,0
    2db8:	00000693          	li	a3,0
    2dbc:	00051703          	lh	a4,0(a0)
    2dc0:	00061783          	lh	a5,0(a2)
    2dc4:	00168693          	add	a3,a3,1
    2dc8:	00260613          	add	a2,a2,2
    2dcc:	02e787b3          	mul	a5,a5,a4
    2dd0:	00950533          	add	a0,a0,s1
    2dd4:	4027d713          	sra	a4,a5,0x2
    2dd8:	4057d793          	sra	a5,a5,0x5
    2ddc:	00f77713          	and	a4,a4,15
    2de0:	07f7f793          	and	a5,a5,127
    2de4:	02f707b3          	mul	a5,a4,a5
    2de8:	00f80833          	add	a6,a6,a5
    2dec:	fc86e8e3          	bltu	a3,s0,2dbc <matrix_test+0x364>
    2df0:	01032023          	sw	a6,0(t1)
    2df4:	00188893          	add	a7,a7,1
    2df8:	00430313          	add	t1,t1,4
    2dfc:	002e0e13          	add	t3,t3,2
    2e00:	fa88e6e3          	bltu	a7,s0,2dac <matrix_test+0x354>
    2e04:	001f0f13          	add	t5,t5,1
    2e08:	009e8eb3          	add	t4,t4,s1
    2e0c:	414f8fb3          	sub	t6,t6,s4
    2e10:	f88f68e3          	bltu	t5,s0,2da0 <matrix_test+0x348>
    2e14:	00000e13          	li	t3,0
    2e18:	00000713          	li	a4,0
    2e1c:	00000613          	li	a2,0
    2e20:	00000513          	li	a0,0
    2e24:	00000313          	li	t1,0
    2e28:	002e1813          	sll	a6,t3,0x2
    2e2c:	010a8833          	add	a6,s5,a6
    2e30:	00000893          	li	a7,0
    2e34:	0180006f          	j	2e4c <matrix_test+0x3f4>
    2e38:	01079513          	sll	a0,a5,0x10
    2e3c:	00188893          	add	a7,a7,1
    2e40:	41055513          	sra	a0,a0,0x10
    2e44:	00480813          	add	a6,a6,4
    2e48:	0488f063          	bgeu	a7,s0,2e88 <matrix_test+0x430>
    2e4c:	00070693          	mv	a3,a4
    2e50:	01051793          	sll	a5,a0,0x10
    2e54:	00082703          	lw	a4,0(a6)
    2e58:	0107d793          	srl	a5,a5,0x10
    2e5c:	00a78513          	add	a0,a5,10
    2e60:	00e6a6b3          	slt	a3,a3,a4
    2e64:	01051513          	sll	a0,a0,0x10
    2e68:	00e60633          	add	a2,a2,a4
    2e6c:	41055513          	sra	a0,a0,0x10
    2e70:	00d787b3          	add	a5,a5,a3
    2e74:	fcc952e3          	bge	s2,a2,2e38 <matrix_test+0x3e0>
    2e78:	00188893          	add	a7,a7,1
    2e7c:	00000613          	li	a2,0
    2e80:	00480813          	add	a6,a6,4
    2e84:	fc88e4e3          	bltu	a7,s0,2e4c <matrix_test+0x3f4>
    2e88:	00130313          	add	t1,t1,1
    2e8c:	008e0e33          	add	t3,t3,s0
    2e90:	f8836ce3          	bltu	t1,s0,2e28 <matrix_test+0x3d0>
    2e94:	5a4010ef          	jal	4438 <crc16>
    2e98:	00000593          	li	a1,0
    2e9c:	00000613          	li	a2,0
    2ea0:	00159793          	sll	a5,a1,0x1
    2ea4:	00fb87b3          	add	a5,s7,a5
    2ea8:	00000693          	li	a3,0
    2eac:	0007d703          	lhu	a4,0(a5)
    2eb0:	00168693          	add	a3,a3,1
    2eb4:	00278793          	add	a5,a5,2
    2eb8:	41370733          	sub	a4,a4,s3
    2ebc:	fee79f23          	sh	a4,-2(a5)
    2ec0:	fe86e6e3          	bltu	a3,s0,2eac <matrix_test+0x454>
    2ec4:	00160613          	add	a2,a2,1
    2ec8:	008585b3          	add	a1,a1,s0
    2ecc:	fc866ae3          	bltu	a2,s0,2ea0 <matrix_test+0x448>
    2ed0:	02812403          	lw	s0,40(sp)
    2ed4:	02c12083          	lw	ra,44(sp)
    2ed8:	01051513          	sll	a0,a0,0x10
    2edc:	02412483          	lw	s1,36(sp)
    2ee0:	01c12983          	lw	s3,28(sp)
    2ee4:	01812a03          	lw	s4,24(sp)
    2ee8:	01412a83          	lw	s5,20(sp)
    2eec:	01012b03          	lw	s6,16(sp)
    2ef0:	00c12b83          	lw	s7,12(sp)
    2ef4:	00812c03          	lw	s8,8(sp)
    2ef8:	02012903          	lw	s2,32(sp)
    2efc:	41055513          	sra	a0,a0,0x10
    2f00:	03010113          	add	sp,sp,48
    2f04:	00008067          	ret
    2f08:	00000593          	li	a1,0
    2f0c:	52c010ef          	jal	4438 <crc16>
    2f10:	00050593          	mv	a1,a0
    2f14:	00000513          	li	a0,0
    2f18:	520010ef          	jal	4438 <crc16>
    2f1c:	00050593          	mv	a1,a0
    2f20:	00000513          	li	a0,0
    2f24:	514010ef          	jal	4438 <crc16>
    2f28:	00050593          	mv	a1,a0
    2f2c:	00000513          	li	a0,0
    2f30:	508010ef          	jal	4438 <crc16>
    2f34:	02c12083          	lw	ra,44(sp)
    2f38:	01051513          	sll	a0,a0,0x10
    2f3c:	02012903          	lw	s2,32(sp)
    2f40:	41055513          	sra	a0,a0,0x10
    2f44:	03010113          	add	sp,sp,48
    2f48:	00008067          	ret

00002f4c <core_bench_matrix>:
    2f4c:	ff010113          	add	sp,sp,-16
    2f50:	00812423          	sw	s0,8(sp)
    2f54:	00852683          	lw	a3,8(a0)
    2f58:	00060413          	mv	s0,a2
    2f5c:	00058713          	mv	a4,a1
    2f60:	00452603          	lw	a2,4(a0)
    2f64:	00c52583          	lw	a1,12(a0)
    2f68:	00052503          	lw	a0,0(a0)
    2f6c:	00112623          	sw	ra,12(sp)
    2f70:	ae9ff0ef          	jal	2a58 <matrix_test>
    2f74:	00040593          	mv	a1,s0
    2f78:	00812403          	lw	s0,8(sp)
    2f7c:	00c12083          	lw	ra,12(sp)
    2f80:	01010113          	add	sp,sp,16
    2f84:	4b40106f          	j	4438 <crc16>

00002f88 <core_init_matrix>:
    2f88:	ff010113          	add	sp,sp,-16
    2f8c:	00812623          	sw	s0,12(sp)
    2f90:	00912423          	sw	s1,8(sp)
    2f94:	00050813          	mv	a6,a0
    2f98:	00061463          	bnez	a2,2fa0 <core_init_matrix+0x18>
    2f9c:	00100613          	li	a2,1
    2fa0:	fff58593          	add	a1,a1,-1
    2fa4:	ffc5f293          	and	t0,a1,-4
    2fa8:	00428413          	add	s0,t0,4
    2fac:	00000793          	li	a5,0
    2fb0:	0e080463          	beqz	a6,3098 <core_init_matrix+0x110>
    2fb4:	00078513          	mv	a0,a5
    2fb8:	00178793          	add	a5,a5,1
    2fbc:	02f78733          	mul	a4,a5,a5
    2fc0:	00371713          	sll	a4,a4,0x3
    2fc4:	ff0768e3          	bltu	a4,a6,2fb4 <core_init_matrix+0x2c>
    2fc8:	02a503b3          	mul	t2,a0,a0
    2fcc:	00139393          	sll	t2,t2,0x1
    2fd0:	007402b3          	add	t0,s0,t2
    2fd4:	0c050e63          	beqz	a0,30b0 <core_init_matrix+0x128>
    2fd8:	01212223          	sw	s2,4(sp)
    2fdc:	00050493          	mv	s1,a0
    2fe0:	00150313          	add	t1,a0,1
    2fe4:	00151913          	sll	s2,a0,0x1
    2fe8:	00028f13          	mv	t5,t0
    2fec:	00000e93          	li	t4,0
    2ff0:	00100713          	li	a4,1
    2ff4:	40540e33          	sub	t3,s0,t0
    2ff8:	00070f93          	mv	t6,a4
    2ffc:	000f0813          	mv	a6,t5
    3000:	02e60633          	mul	a2,a2,a4
    3004:	01071793          	sll	a5,a4,0x10
    3008:	0107d793          	srl	a5,a5,0x10
    300c:	010e08b3          	add	a7,t3,a6
    3010:	00170713          	add	a4,a4,1
    3014:	00280813          	add	a6,a6,2
    3018:	41f65593          	sra	a1,a2,0x1f
    301c:	0105d593          	srl	a1,a1,0x10
    3020:	00b60633          	add	a2,a2,a1
    3024:	01061613          	sll	a2,a2,0x10
    3028:	01065613          	srl	a2,a2,0x10
    302c:	40b60633          	sub	a2,a2,a1
    3030:	00c785b3          	add	a1,a5,a2
    3034:	01059593          	sll	a1,a1,0x10
    3038:	0105d593          	srl	a1,a1,0x10
    303c:	00f587b3          	add	a5,a1,a5
    3040:	feb81f23          	sh	a1,-2(a6)
    3044:	0ff7f793          	zext.b	a5,a5
    3048:	00f89023          	sh	a5,0(a7)
    304c:	fa671ae3          	bne	a4,t1,3000 <core_init_matrix+0x78>
    3050:	001e8e93          	add	t4,t4,1
    3054:	01f50733          	add	a4,a0,t6
    3058:	00a30333          	add	t1,t1,a0
    305c:	012f0f33          	add	t5,t5,s2
    3060:	f8ae9ce3          	bne	t4,a0,2ff8 <core_init_matrix+0x70>
    3064:	00412903          	lw	s2,4(sp)
    3068:	007287b3          	add	a5,t0,t2
    306c:	fff78793          	add	a5,a5,-1
    3070:	0086a223          	sw	s0,4(a3)
    3074:	ffc7f793          	and	a5,a5,-4
    3078:	00c12403          	lw	s0,12(sp)
    307c:	00478793          	add	a5,a5,4
    3080:	0096a023          	sw	s1,0(a3)
    3084:	00f6a623          	sw	a5,12(a3)
    3088:	0056a423          	sw	t0,8(a3)
    308c:	00812483          	lw	s1,8(sp)
    3090:	01010113          	add	sp,sp,16
    3094:	00008067          	ret
    3098:	fff00493          	li	s1,-1
    309c:	01212223          	sw	s2,4(sp)
    30a0:	00628293          	add	t0,t0,6
    30a4:	00048513          	mv	a0,s1
    30a8:	00200393          	li	t2,2
    30ac:	f35ff06f          	j	2fe0 <core_init_matrix+0x58>
    30b0:	00000393          	li	t2,0
    30b4:	00000493          	li	s1,0
    30b8:	fb1ff06f          	j	3068 <core_init_matrix+0xe0>

000030bc <matrix_sum>:
    30bc:	00050e93          	mv	t4,a0
    30c0:	08050463          	beqz	a0,3148 <matrix_sum+0x8c>
    30c4:	00251f93          	sll	t6,a0,0x2
    30c8:	40a00f33          	neg	t5,a0
    30cc:	01f588b3          	add	a7,a1,t6
    30d0:	003f1f13          	sll	t5,t5,0x3
    30d4:	00000313          	li	t1,0
    30d8:	00000513          	li	a0,0
    30dc:	00000693          	li	a3,0
    30e0:	00000813          	li	a6,0
    30e4:	41f88e33          	sub	t3,a7,t6
    30e8:	000e0713          	mv	a4,t3
    30ec:	0140006f          	j	3100 <matrix_sum+0x44>
    30f0:	01079513          	sll	a0,a5,0x10
    30f4:	00470713          	add	a4,a4,4
    30f8:	41055513          	sra	a0,a0,0x10
    30fc:	02e88e63          	beq	a7,a4,3138 <matrix_sum+0x7c>
    3100:	00068593          	mv	a1,a3
    3104:	01051793          	sll	a5,a0,0x10
    3108:	00072683          	lw	a3,0(a4)
    310c:	0107d793          	srl	a5,a5,0x10
    3110:	00a78513          	add	a0,a5,10
    3114:	00d5a5b3          	slt	a1,a1,a3
    3118:	01051513          	sll	a0,a0,0x10
    311c:	00d80833          	add	a6,a6,a3
    3120:	41055513          	sra	a0,a0,0x10
    3124:	00b787b3          	add	a5,a5,a1
    3128:	fd0654e3          	bge	a2,a6,30f0 <matrix_sum+0x34>
    312c:	00470713          	add	a4,a4,4
    3130:	00000813          	li	a6,0
    3134:	fce896e3          	bne	a7,a4,3100 <matrix_sum+0x44>
    3138:	00130313          	add	t1,t1,1
    313c:	41ee08b3          	sub	a7,t3,t5
    3140:	fa6e92e3          	bne	t4,t1,30e4 <matrix_sum+0x28>
    3144:	00008067          	ret
    3148:	00000513          	li	a0,0
    314c:	00008067          	ret

00003150 <matrix_mul_const>:
    3150:	04050a63          	beqz	a0,31a4 <matrix_mul_const+0x54>
    3154:	00151f13          	sll	t5,a0,0x1
    3158:	40a00eb3          	neg	t4,a0
    315c:	01e60833          	add	a6,a2,t5
    3160:	002e9e93          	sll	t4,t4,0x2
    3164:	00000313          	li	t1,0
    3168:	00000893          	li	a7,0
    316c:	41e80e33          	sub	t3,a6,t5
    3170:	00231613          	sll	a2,t1,0x2
    3174:	000e0793          	mv	a5,t3
    3178:	00c58633          	add	a2,a1,a2
    317c:	00079703          	lh	a4,0(a5)
    3180:	00278793          	add	a5,a5,2
    3184:	00460613          	add	a2,a2,4
    3188:	02d70733          	mul	a4,a4,a3
    318c:	fee62e23          	sw	a4,-4(a2)
    3190:	fef816e3          	bne	a6,a5,317c <matrix_mul_const+0x2c>
    3194:	00188893          	add	a7,a7,1
    3198:	00a30333          	add	t1,t1,a0
    319c:	41de0833          	sub	a6,t3,t4
    31a0:	fd1516e3          	bne	a0,a7,316c <matrix_mul_const+0x1c>
    31a4:	00008067          	ret

000031a8 <matrix_add_const>:
    31a8:	04050463          	beqz	a0,31f0 <matrix_add_const+0x48>
    31ac:	00151313          	sll	t1,a0,0x1
    31b0:	40a008b3          	neg	a7,a0
    31b4:	01061613          	sll	a2,a2,0x10
    31b8:	006586b3          	add	a3,a1,t1
    31bc:	01065613          	srl	a2,a2,0x10
    31c0:	00289893          	sll	a7,a7,0x2
    31c4:	00000593          	li	a1,0
    31c8:	40668833          	sub	a6,a3,t1
    31cc:	00080793          	mv	a5,a6
    31d0:	0007d703          	lhu	a4,0(a5)
    31d4:	00278793          	add	a5,a5,2
    31d8:	00e60733          	add	a4,a2,a4
    31dc:	fee79f23          	sh	a4,-2(a5)
    31e0:	fef698e3          	bne	a3,a5,31d0 <matrix_add_const+0x28>
    31e4:	00158593          	add	a1,a1,1
    31e8:	411806b3          	sub	a3,a6,a7
    31ec:	fcb51ee3          	bne	a0,a1,31c8 <matrix_add_const+0x20>
    31f0:	00008067          	ret

000031f4 <matrix_mul_vect>:
    31f4:	04050a63          	beqz	a0,3248 <matrix_mul_vect+0x54>
    31f8:	00251f13          	sll	t5,a0,0x2
    31fc:	00151e13          	sll	t3,a0,0x1
    3200:	01e58f33          	add	t5,a1,t5
    3204:	01c68e33          	add	t3,a3,t3
    3208:	00000e93          	li	t4,0
    320c:	001e9813          	sll	a6,t4,0x1
    3210:	01060833          	add	a6,a2,a6
    3214:	00068793          	mv	a5,a3
    3218:	00000893          	li	a7,0
    321c:	00081703          	lh	a4,0(a6)
    3220:	00079303          	lh	t1,0(a5)
    3224:	00278793          	add	a5,a5,2
    3228:	00280813          	add	a6,a6,2
    322c:	02670733          	mul	a4,a4,t1
    3230:	00e888b3          	add	a7,a7,a4
    3234:	fefe14e3          	bne	t3,a5,321c <matrix_mul_vect+0x28>
    3238:	0115a023          	sw	a7,0(a1)
    323c:	00458593          	add	a1,a1,4
    3240:	00ae8eb3          	add	t4,t4,a0
    3244:	fcbf14e3          	bne	t5,a1,320c <matrix_mul_vect+0x18>
    3248:	00008067          	ret

0000324c <matrix_mul_matrix>:
    324c:	0a050463          	beqz	a0,32f4 <matrix_mul_matrix+0xa8>
    3250:	ff010113          	add	sp,sp,-16
    3254:	00050f13          	mv	t5,a0
    3258:	00151513          	sll	a0,a0,0x1
    325c:	00812623          	sw	s0,12(sp)
    3260:	00058393          	mv	t2,a1
    3264:	00068413          	mv	s0,a3
    3268:	00060e93          	mv	t4,a2
    326c:	00a60833          	add	a6,a2,a0
    3270:	00000f93          	li	t6,0
    3274:	00000293          	li	t0,0
    3278:	002f9893          	sll	a7,t6,0x2
    327c:	011388b3          	add	a7,t2,a7
    3280:	00040313          	mv	t1,s0
    3284:	00000e13          	li	t3,0
    3288:	00030693          	mv	a3,t1
    328c:	000e8793          	mv	a5,t4
    3290:	00000613          	li	a2,0
    3294:	00079703          	lh	a4,0(a5)
    3298:	00069583          	lh	a1,0(a3)
    329c:	00278793          	add	a5,a5,2
    32a0:	00a686b3          	add	a3,a3,a0
    32a4:	02b70733          	mul	a4,a4,a1
    32a8:	00e60633          	add	a2,a2,a4
    32ac:	fef814e3          	bne	a6,a5,3294 <matrix_mul_matrix+0x48>
    32b0:	00c8a023          	sw	a2,0(a7)
    32b4:	001e0793          	add	a5,t3,1
    32b8:	00488893          	add	a7,a7,4
    32bc:	00230313          	add	t1,t1,2
    32c0:	00ff0663          	beq	t5,a5,32cc <matrix_mul_matrix+0x80>
    32c4:	00078e13          	mv	t3,a5
    32c8:	fc1ff06f          	j	3288 <matrix_mul_matrix+0x3c>
    32cc:	00ae8eb3          	add	t4,t4,a0
    32d0:	01ef8fb3          	add	t6,t6,t5
    32d4:	00a80833          	add	a6,a6,a0
    32d8:	00128793          	add	a5,t0,1
    32dc:	01c28663          	beq	t0,t3,32e8 <matrix_mul_matrix+0x9c>
    32e0:	00078293          	mv	t0,a5
    32e4:	f95ff06f          	j	3278 <matrix_mul_matrix+0x2c>
    32e8:	00c12403          	lw	s0,12(sp)
    32ec:	01010113          	add	sp,sp,16
    32f0:	00008067          	ret
    32f4:	00008067          	ret

000032f8 <matrix_mul_matrix_bitextract>:
    32f8:	0a050e63          	beqz	a0,33b4 <matrix_mul_matrix_bitextract+0xbc>
    32fc:	ff010113          	add	sp,sp,-16
    3300:	00050f13          	mv	t5,a0
    3304:	00151513          	sll	a0,a0,0x1
    3308:	00812623          	sw	s0,12(sp)
    330c:	00058393          	mv	t2,a1
    3310:	00068413          	mv	s0,a3
    3314:	00060e93          	mv	t4,a2
    3318:	00a60833          	add	a6,a2,a0
    331c:	00000f93          	li	t6,0
    3320:	00000293          	li	t0,0
    3324:	002f9893          	sll	a7,t6,0x2
    3328:	011388b3          	add	a7,t2,a7
    332c:	00040313          	mv	t1,s0
    3330:	00000e13          	li	t3,0
    3334:	00030613          	mv	a2,t1
    3338:	000e8693          	mv	a3,t4
    333c:	00000593          	li	a1,0
    3340:	00061703          	lh	a4,0(a2)
    3344:	00069783          	lh	a5,0(a3)
    3348:	00268693          	add	a3,a3,2
    334c:	00a60633          	add	a2,a2,a0
    3350:	02e787b3          	mul	a5,a5,a4
    3354:	4027d713          	sra	a4,a5,0x2
    3358:	4057d793          	sra	a5,a5,0x5
    335c:	00f77713          	and	a4,a4,15
    3360:	07f7f793          	and	a5,a5,127
    3364:	02f707b3          	mul	a5,a4,a5
    3368:	00f585b3          	add	a1,a1,a5
    336c:	fcd81ae3          	bne	a6,a3,3340 <matrix_mul_matrix_bitextract+0x48>
    3370:	00b8a023          	sw	a1,0(a7)
    3374:	001e0793          	add	a5,t3,1
    3378:	00488893          	add	a7,a7,4
    337c:	00230313          	add	t1,t1,2
    3380:	00ff0663          	beq	t5,a5,338c <matrix_mul_matrix_bitextract+0x94>
    3384:	00078e13          	mv	t3,a5
    3388:	fadff06f          	j	3334 <matrix_mul_matrix_bitextract+0x3c>
    338c:	00ae8eb3          	add	t4,t4,a0
    3390:	01ef8fb3          	add	t6,t6,t5
    3394:	00a80833          	add	a6,a6,a0
    3398:	00128793          	add	a5,t0,1
    339c:	01c28663          	beq	t0,t3,33a8 <matrix_mul_matrix_bitextract+0xb0>
    33a0:	00078293          	mv	t0,a5
    33a4:	f81ff06f          	j	3324 <matrix_mul_matrix_bitextract+0x2c>
    33a8:	00c12403          	lw	s0,12(sp)
    33ac:	01010113          	add	sp,sp,16
    33b0:	00008067          	ret
    33b4:	00008067          	ret

000033b8 <core_init_state>:
    33b8:	fff50313          	add	t1,a0,-1
    33bc:	00100893          	li	a7,1
    33c0:	2868f863          	bgeu	a7,t1,3650 <core_init_state+0x298>
    33c4:	011585b3          	add	a1,a1,a7
    33c8:	01059713          	sll	a4,a1,0x10
    33cc:	01075713          	srl	a4,a4,0x10
    33d0:	00375793          	srl	a5,a4,0x3
    33d4:	00700e13          	li	t3,7
    33d8:	00777693          	and	a3,a4,7
    33dc:	ff010113          	add	sp,sp,-16
    33e0:	00000593          	li	a1,0
    33e4:	00007eb7          	lui	t4,0x7
    33e8:	00400f13          	li	t5,4
    33ec:	02c00f93          	li	t6,44
    33f0:	0037f793          	and	a5,a5,3
    33f4:	09c68663          	beq	a3,t3,3480 <core_init_state+0xc8>
    33f8:	20df6e63          	bltu	t5,a3,3614 <core_init_state+0x25c>
    33fc:	ffd68693          	add	a3,a3,-3
    3400:	01069693          	sll	a3,a3,0x10
    3404:	0106d693          	srl	a3,a3,0x10
    3408:	08d8e663          	bltu	a7,a3,3494 <core_init_state+0xdc>
    340c:	00279793          	sll	a5,a5,0x2
    3410:	bcce8693          	add	a3,t4,-1076 # 6bcc <floatpat>
    3414:	00f687b3          	add	a5,a3,a5
    3418:	0007a803          	lw	a6,0(a5)
    341c:	00170713          	add	a4,a4,1
    3420:	01071713          	sll	a4,a4,0x10
    3424:	00958293          	add	t0,a1,9
    3428:	01075713          	srl	a4,a4,0x10
    342c:	0662f863          	bgeu	t0,t1,349c <core_init_state+0xe4>
    3430:	00b606b3          	add	a3,a2,a1
    3434:	0106e7b3          	or	a5,a3,a6
    3438:	0037f793          	and	a5,a5,3
    343c:	1e079663          	bnez	a5,3628 <core_init_state+0x270>
    3440:	00180793          	add	a5,a6,1
    3444:	40f687b3          	sub	a5,a3,a5
    3448:	0037b793          	sltiu	a5,a5,3
    344c:	1c079e63          	bnez	a5,3628 <core_init_state+0x270>
    3450:	00082583          	lw	a1,0(a6)
    3454:	00800793          	li	a5,8
    3458:	00b6a023          	sw	a1,0(a3)
    345c:	00482583          	lw	a1,4(a6)
    3460:	00b6a223          	sw	a1,4(a3)
    3464:	00f687b3          	add	a5,a3,a5
    3468:	01f78023          	sb	t6,0(a5)
    346c:	00777693          	and	a3,a4,7
    3470:	00375793          	srl	a5,a4,0x3
    3474:	00028593          	mv	a1,t0
    3478:	0037f793          	and	a5,a5,3
    347c:	f7c69ee3          	bne	a3,t3,33f8 <core_init_state+0x40>
    3480:	00279793          	sll	a5,a5,0x2
    3484:	bcce8693          	add	a3,t4,-1076
    3488:	00f687b3          	add	a5,a3,a5
    348c:	0207a803          	lw	a6,32(a5)
    3490:	f8dff06f          	j	341c <core_init_state+0x64>
    3494:	00558293          	add	t0,a1,5
    3498:	0e62ea63          	bltu	t0,t1,358c <core_init_state+0x1d4>
    349c:	0ea5f463          	bgeu	a1,a0,3584 <core_init_state+0x1cc>
    34a0:	00158893          	add	a7,a1,1
    34a4:	00088e13          	mv	t3,a7
    34a8:	01153eb3          	sltu	t4,a0,a7
    34ac:	40b507b3          	sub	a5,a0,a1
    34b0:	00100813          	li	a6,1
    34b4:	19157663          	bgeu	a0,a7,3640 <core_init_state+0x288>
    34b8:	fff78793          	add	a5,a5,-1
    34bc:	00b606b3          	add	a3,a2,a1
    34c0:	0067b713          	sltiu	a4,a5,6
    34c4:	40d00333          	neg	t1,a3
    34c8:	00337793          	and	a5,t1,3
    34cc:	06071463          	bnez	a4,3534 <core_init_state+0x17c>
    34d0:	060e9263          	bnez	t4,3534 <core_init_state+0x17c>
    34d4:	16078a63          	beqz	a5,3648 <core_init_state+0x290>
    34d8:	00068023          	sb	zero,0(a3)
    34dc:	00237313          	and	t1,t1,2
    34e0:	02030263          	beqz	t1,3504 <core_init_state+0x14c>
    34e4:	011608b3          	add	a7,a2,a7
    34e8:	00088023          	sb	zero,0(a7)
    34ec:	00300713          	li	a4,3
    34f0:	00258e13          	add	t3,a1,2
    34f4:	00e79863          	bne	a5,a4,3504 <core_init_state+0x14c>
    34f8:	01c60e33          	add	t3,a2,t3
    34fc:	000e0023          	sb	zero,0(t3)
    3500:	00e58e33          	add	t3,a1,a4
    3504:	40f806b3          	sub	a3,a6,a5
    3508:	00f587b3          	add	a5,a1,a5
    350c:	00f607b3          	add	a5,a2,a5
    3510:	ffc6f813          	and	a6,a3,-4
    3514:	00f80733          	add	a4,a6,a5
    3518:	0007a023          	sw	zero,0(a5)
    351c:	00478793          	add	a5,a5,4
    3520:	fef71ce3          	bne	a4,a5,3518 <core_init_state+0x160>
    3524:	01c805b3          	add	a1,a6,t3
    3528:	04d80e63          	beq	a6,a3,3584 <core_init_state+0x1cc>
    352c:	00158893          	add	a7,a1,1
    3530:	00b606b3          	add	a3,a2,a1
    3534:	00068023          	sb	zero,0(a3)
    3538:	04a8f663          	bgeu	a7,a0,3584 <core_init_state+0x1cc>
    353c:	011608b3          	add	a7,a2,a7
    3540:	00088023          	sb	zero,0(a7)
    3544:	00258793          	add	a5,a1,2
    3548:	02a7fe63          	bgeu	a5,a0,3584 <core_init_state+0x1cc>
    354c:	00f607b3          	add	a5,a2,a5
    3550:	00078023          	sb	zero,0(a5)
    3554:	00358793          	add	a5,a1,3
    3558:	02a7f663          	bgeu	a5,a0,3584 <core_init_state+0x1cc>
    355c:	00f607b3          	add	a5,a2,a5
    3560:	00078023          	sb	zero,0(a5)
    3564:	00458793          	add	a5,a1,4
    3568:	00a7fe63          	bgeu	a5,a0,3584 <core_init_state+0x1cc>
    356c:	00f607b3          	add	a5,a2,a5
    3570:	00078023          	sb	zero,0(a5)
    3574:	00558593          	add	a1,a1,5
    3578:	00a5f663          	bgeu	a1,a0,3584 <core_init_state+0x1cc>
    357c:	00b605b3          	add	a1,a2,a1
    3580:	00058023          	sb	zero,0(a1)
    3584:	01010113          	add	sp,sp,16
    3588:	00008067          	ret
    358c:	000076b7          	lui	a3,0x7
    3590:	bcc68693          	add	a3,a3,-1076 # 6bcc <floatpat>
    3594:	00279793          	sll	a5,a5,0x2
    3598:	00f687b3          	add	a5,a3,a5
    359c:	0307a803          	lw	a6,48(a5)
    35a0:	00812623          	sw	s0,12(sp)
    35a4:	00170713          	add	a4,a4,1
    35a8:	00084783          	lbu	a5,0(a6)
    35ac:	00b606b3          	add	a3,a2,a1
    35b0:	01071713          	sll	a4,a4,0x10
    35b4:	00f68023          	sb	a5,0(a3)
    35b8:	01075713          	srl	a4,a4,0x10
    35bc:	00158593          	add	a1,a1,1
    35c0:	00400793          	li	a5,4
    35c4:	00184403          	lbu	s0,1(a6)
    35c8:	00b605b3          	add	a1,a2,a1
    35cc:	00400393          	li	t2,4
    35d0:	00858023          	sb	s0,0(a1)
    35d4:	00284583          	lbu	a1,2(a6)
    35d8:	00b68123          	sb	a1,2(a3)
    35dc:	00384583          	lbu	a1,3(a6)
    35e0:	00b681a3          	sb	a1,3(a3)
    35e4:	0c778263          	beq	a5,t2,36a8 <core_init_state+0x2f0>
    35e8:	00484583          	lbu	a1,4(a6)
    35ec:	00800793          	li	a5,8
    35f0:	00b68223          	sb	a1,4(a3)
    35f4:	00584583          	lbu	a1,5(a6)
    35f8:	00b682a3          	sb	a1,5(a3)
    35fc:	00684583          	lbu	a1,6(a6)
    3600:	00b68323          	sb	a1,6(a3)
    3604:	00784583          	lbu	a1,7(a6)
    3608:	00b683a3          	sb	a1,7(a3)
    360c:	00c12403          	lw	s0,12(sp)
    3610:	e55ff06f          	j	3464 <core_init_state+0xac>
    3614:	00279793          	sll	a5,a5,0x2
    3618:	bcce8693          	add	a3,t4,-1076
    361c:	00f687b3          	add	a5,a3,a5
    3620:	0107a803          	lw	a6,16(a5)
    3624:	df9ff06f          	j	341c <core_init_state+0x64>
    3628:	00812623          	sw	s0,12(sp)
    362c:	00084383          	lbu	t2,0(a6)
    3630:	00158593          	add	a1,a1,1
    3634:	00800793          	li	a5,8
    3638:	00768023          	sb	t2,0(a3)
    363c:	f89ff06f          	j	35c4 <core_init_state+0x20c>
    3640:	00078813          	mv	a6,a5
    3644:	e75ff06f          	j	34b8 <core_init_state+0x100>
    3648:	00058e13          	mv	t3,a1
    364c:	eb9ff06f          	j	3504 <core_init_state+0x14c>
    3650:	00060023          	sb	zero,0(a2)
    3654:	00000593          	li	a1,0
    3658:	04a8f663          	bgeu	a7,a0,36a4 <core_init_state+0x2ec>
    365c:	011608b3          	add	a7,a2,a7
    3660:	00088023          	sb	zero,0(a7)
    3664:	00258793          	add	a5,a1,2
    3668:	02a7fe63          	bgeu	a5,a0,36a4 <core_init_state+0x2ec>
    366c:	00f607b3          	add	a5,a2,a5
    3670:	00078023          	sb	zero,0(a5)
    3674:	00358793          	add	a5,a1,3
    3678:	02a7f663          	bgeu	a5,a0,36a4 <core_init_state+0x2ec>
    367c:	00f607b3          	add	a5,a2,a5
    3680:	00078023          	sb	zero,0(a5)
    3684:	00458793          	add	a5,a1,4
    3688:	00a7fe63          	bgeu	a5,a0,36a4 <core_init_state+0x2ec>
    368c:	00f607b3          	add	a5,a2,a5
    3690:	00078023          	sb	zero,0(a5)
    3694:	00558593          	add	a1,a1,5
    3698:	00a5f663          	bgeu	a1,a0,36a4 <core_init_state+0x2ec>
    369c:	00b605b3          	add	a1,a2,a1
    36a0:	00058023          	sb	zero,0(a1)
    36a4:	00008067          	ret
    36a8:	00c12403          	lw	s0,12(sp)
    36ac:	db9ff06f          	j	3464 <core_init_state+0xac>

000036b0 <core_state_transition>:
    36b0:	00052683          	lw	a3,0(a0)
    36b4:	00050613          	mv	a2,a0
    36b8:	0006c783          	lbu	a5,0(a3)
    36bc:	26078e63          	beqz	a5,3938 <core_state_transition+0x288>
    36c0:	02c00713          	li	a4,44
    36c4:	00000513          	li	a0,0
    36c8:	1ee78c63          	beq	a5,a4,38c0 <core_state_transition+0x210>
    36cc:	02e00813          	li	a6,46
    36d0:	23078663          	beq	a5,a6,38fc <core_state_transition+0x24c>
    36d4:	1ef86a63          	bltu	a6,a5,38c8 <core_state_transition+0x218>
    36d8:	fd578793          	add	a5,a5,-43
    36dc:	0fd7f793          	and	a5,a5,253
    36e0:	02078663          	beqz	a5,370c <core_state_transition+0x5c>
    36e4:	0045a703          	lw	a4,4(a1)
    36e8:	0005a783          	lw	a5,0(a1)
    36ec:	00168693          	add	a3,a3,1
    36f0:	00170713          	add	a4,a4,1
    36f4:	00178793          	add	a5,a5,1
    36f8:	00e5a223          	sw	a4,4(a1)
    36fc:	00f5a023          	sw	a5,0(a1)
    3700:	00100513          	li	a0,1
    3704:	00d62023          	sw	a3,0(a2)
    3708:	00008067          	ret
    370c:	0005a503          	lw	a0,0(a1)
    3710:	00168793          	add	a5,a3,1
    3714:	00150513          	add	a0,a0,1
    3718:	00a5a023          	sw	a0,0(a1)
    371c:	0016c883          	lbu	a7,1(a3)
    3720:	26088663          	beqz	a7,398c <core_state_transition+0x2dc>
    3724:	20e88263          	beq	a7,a4,3928 <core_state_transition+0x278>
    3728:	0085a503          	lw	a0,8(a1)
    372c:	fd088713          	add	a4,a7,-48
    3730:	0ff77713          	zext.b	a4,a4
    3734:	00900313          	li	t1,9
    3738:	00150513          	add	a0,a0,1
    373c:	00e37e63          	bgeu	t1,a4,3758 <core_state_transition+0xa8>
    3740:	1f088063          	beq	a7,a6,3920 <core_state_transition+0x270>
    3744:	00a5a423          	sw	a0,8(a1)
    3748:	00268693          	add	a3,a3,2
    374c:	00100513          	li	a0,1
    3750:	00d62023          	sw	a3,0(a2)
    3754:	00008067          	ret
    3758:	00a5a423          	sw	a0,8(a1)
    375c:	0017c683          	lbu	a3,1(a5)
    3760:	00178793          	add	a5,a5,1
    3764:	18068663          	beqz	a3,38f0 <core_state_transition+0x240>
    3768:	02c00713          	li	a4,44
    376c:	1ee68e63          	beq	a3,a4,3968 <core_state_transition+0x2b8>
    3770:	02e00713          	li	a4,46
    3774:	02e68863          	beq	a3,a4,37a4 <core_state_transition+0xf4>
    3778:	fd068693          	add	a3,a3,-48
    377c:	0ff6f693          	zext.b	a3,a3
    3780:	00900713          	li	a4,9
    3784:	fcd77ce3          	bgeu	a4,a3,375c <core_state_transition+0xac>
    3788:	0105a703          	lw	a4,16(a1)
    378c:	00100513          	li	a0,1
    3790:	00178693          	add	a3,a5,1
    3794:	00a707b3          	add	a5,a4,a0
    3798:	00f5a823          	sw	a5,16(a1)
    379c:	00d62023          	sw	a3,0(a2)
    37a0:	00008067          	ret
    37a4:	0105a703          	lw	a4,16(a1)
    37a8:	00170713          	add	a4,a4,1
    37ac:	00e5a823          	sw	a4,16(a1)
    37b0:	0017c683          	lbu	a3,1(a5)
    37b4:	00178793          	add	a5,a5,1
    37b8:	14068e63          	beqz	a3,3914 <core_state_transition+0x264>
    37bc:	02c00713          	li	a4,44
    37c0:	0ee68c63          	beq	a3,a4,38b8 <core_state_transition+0x208>
    37c4:	0df6f713          	and	a4,a3,223
    37c8:	04500513          	li	a0,69
    37cc:	02a70863          	beq	a4,a0,37fc <core_state_transition+0x14c>
    37d0:	fd068693          	add	a3,a3,-48
    37d4:	0ff6f693          	zext.b	a3,a3
    37d8:	00900713          	li	a4,9
    37dc:	fcd77ae3          	bgeu	a4,a3,37b0 <core_state_transition+0x100>
    37e0:	0145a703          	lw	a4,20(a1)
    37e4:	00100513          	li	a0,1
    37e8:	00178693          	add	a3,a5,1
    37ec:	00a707b3          	add	a5,a4,a0
    37f0:	00f5aa23          	sw	a5,20(a1)
    37f4:	00d62023          	sw	a3,0(a2)
    37f8:	00008067          	ret
    37fc:	0145a703          	lw	a4,20(a1)
    3800:	00178693          	add	a3,a5,1
    3804:	00170713          	add	a4,a4,1
    3808:	00e5aa23          	sw	a4,20(a1)
    380c:	0017c703          	lbu	a4,1(a5)
    3810:	12070c63          	beqz	a4,3948 <core_state_transition+0x298>
    3814:	02c00513          	li	a0,44
    3818:	14a70263          	beq	a4,a0,395c <core_state_transition+0x2ac>
    381c:	00c5a683          	lw	a3,12(a1)
    3820:	fd570713          	add	a4,a4,-43
    3824:	0fd77713          	and	a4,a4,253
    3828:	00168693          	add	a3,a3,1
    382c:	00d5a623          	sw	a3,12(a1)
    3830:	00070a63          	beqz	a4,3844 <core_state_transition+0x194>
    3834:	00278693          	add	a3,a5,2
    3838:	00100513          	li	a0,1
    383c:	00d62023          	sw	a3,0(a2)
    3840:	00008067          	ret
    3844:	0027c703          	lbu	a4,2(a5)
    3848:	00278693          	add	a3,a5,2
    384c:	0e070a63          	beqz	a4,3940 <core_state_transition+0x290>
    3850:	10a70063          	beq	a4,a0,3950 <core_state_transition+0x2a0>
    3854:	0185a803          	lw	a6,24(a1)
    3858:	fd070713          	add	a4,a4,-48
    385c:	0ff77713          	zext.b	a4,a4
    3860:	00180813          	add	a6,a6,1
    3864:	00900513          	li	a0,9
    3868:	0105ac23          	sw	a6,24(a1)
    386c:	00e57863          	bgeu	a0,a4,387c <core_state_transition+0x1cc>
    3870:	00378693          	add	a3,a5,3
    3874:	00100513          	li	a0,1
    3878:	e8dff06f          	j	3704 <core_state_transition+0x54>
    387c:	00068813          	mv	a6,a3
    3880:	0016c703          	lbu	a4,1(a3)
    3884:	00168693          	add	a3,a3,1
    3888:	02c00893          	li	a7,44
    388c:	fd070793          	add	a5,a4,-48
    3890:	0ff7f793          	zext.b	a5,a5
    3894:	0e070863          	beqz	a4,3984 <core_state_transition+0x2d4>
    3898:	0f170063          	beq	a4,a7,3978 <core_state_transition+0x2c8>
    389c:	fef570e3          	bgeu	a0,a5,387c <core_state_transition+0x1cc>
    38a0:	0045a783          	lw	a5,4(a1)
    38a4:	00100513          	li	a0,1
    38a8:	00280693          	add	a3,a6,2
    38ac:	00a787b3          	add	a5,a5,a0
    38b0:	00f5a223          	sw	a5,4(a1)
    38b4:	e51ff06f          	j	3704 <core_state_transition+0x54>
    38b8:	00078693          	mv	a3,a5
    38bc:	00500513          	li	a0,5
    38c0:	00168693          	add	a3,a3,1
    38c4:	e41ff06f          	j	3704 <core_state_transition+0x54>
    38c8:	fd078793          	add	a5,a5,-48
    38cc:	0ff7f793          	zext.b	a5,a5
    38d0:	00900513          	li	a0,9
    38d4:	e0f568e3          	bltu	a0,a5,36e4 <core_state_transition+0x34>
    38d8:	0005a503          	lw	a0,0(a1)
    38dc:	00168793          	add	a5,a3,1
    38e0:	00150513          	add	a0,a0,1
    38e4:	00a5a023          	sw	a0,0(a1)
    38e8:	0016c683          	lbu	a3,1(a3)
    38ec:	e80690e3          	bnez	a3,376c <core_state_transition+0xbc>
    38f0:	00078693          	mv	a3,a5
    38f4:	00400513          	li	a0,4
    38f8:	e0dff06f          	j	3704 <core_state_transition+0x54>
    38fc:	0005a503          	lw	a0,0(a1)
    3900:	00168793          	add	a5,a3,1
    3904:	00150513          	add	a0,a0,1
    3908:	00a5a023          	sw	a0,0(a1)
    390c:	0016c683          	lbu	a3,1(a3)
    3910:	ea0698e3          	bnez	a3,37c0 <core_state_transition+0x110>
    3914:	00078693          	mv	a3,a5
    3918:	00500513          	li	a0,5
    391c:	de9ff06f          	j	3704 <core_state_transition+0x54>
    3920:	00a5a423          	sw	a0,8(a1)
    3924:	e8dff06f          	j	37b0 <core_state_transition+0x100>
    3928:	00078693          	mv	a3,a5
    392c:	00200513          	li	a0,2
    3930:	00168693          	add	a3,a3,1
    3934:	dd1ff06f          	j	3704 <core_state_transition+0x54>
    3938:	00000513          	li	a0,0
    393c:	dc9ff06f          	j	3704 <core_state_transition+0x54>
    3940:	00600513          	li	a0,6
    3944:	dc1ff06f          	j	3704 <core_state_transition+0x54>
    3948:	00300513          	li	a0,3
    394c:	db9ff06f          	j	3704 <core_state_transition+0x54>
    3950:	00600513          	li	a0,6
    3954:	00168693          	add	a3,a3,1
    3958:	dadff06f          	j	3704 <core_state_transition+0x54>
    395c:	00300513          	li	a0,3
    3960:	00168693          	add	a3,a3,1
    3964:	da1ff06f          	j	3704 <core_state_transition+0x54>
    3968:	00078693          	mv	a3,a5
    396c:	00400513          	li	a0,4
    3970:	00168693          	add	a3,a3,1
    3974:	d91ff06f          	j	3704 <core_state_transition+0x54>
    3978:	00700513          	li	a0,7
    397c:	00168693          	add	a3,a3,1
    3980:	d85ff06f          	j	3704 <core_state_transition+0x54>
    3984:	00700513          	li	a0,7
    3988:	d7dff06f          	j	3704 <core_state_transition+0x54>
    398c:	00078693          	mv	a3,a5
    3990:	00200513          	li	a0,2
    3994:	d71ff06f          	j	3704 <core_state_transition+0x54>

00003998 <core_bench_state>:
    3998:	f8010113          	add	sp,sp,-128
    399c:	06812c23          	sw	s0,120(sp)
    39a0:	06912a23          	sw	s1,116(sp)
    39a4:	07212823          	sw	s2,112(sp)
    39a8:	07312623          	sw	s3,108(sp)
    39ac:	07412423          	sw	s4,104(sp)
    39b0:	07512223          	sw	s5,100(sp)
    39b4:	07612023          	sw	s6,96(sp)
    39b8:	05712e23          	sw	s7,92(sp)
    39bc:	05812c23          	sw	s8,88(sp)
    39c0:	06112e23          	sw	ra,124(sp)
    39c4:	00058413          	mv	s0,a1
    39c8:	0005c583          	lbu	a1,0(a1)
    39cc:	00812623          	sw	s0,12(sp)
    39d0:	02012823          	sw	zero,48(sp)
    39d4:	00012823          	sw	zero,16(sp)
    39d8:	02012a23          	sw	zero,52(sp)
    39dc:	00012a23          	sw	zero,20(sp)
    39e0:	02012c23          	sw	zero,56(sp)
    39e4:	00012c23          	sw	zero,24(sp)
    39e8:	02012e23          	sw	zero,60(sp)
    39ec:	00012e23          	sw	zero,28(sp)
    39f0:	04012023          	sw	zero,64(sp)
    39f4:	02012023          	sw	zero,32(sp)
    39f8:	04012223          	sw	zero,68(sp)
    39fc:	02012223          	sw	zero,36(sp)
    3a00:	04012423          	sw	zero,72(sp)
    3a04:	02012423          	sw	zero,40(sp)
    3a08:	04012623          	sw	zero,76(sp)
    3a0c:	02012623          	sw	zero,44(sp)
    3a10:	00050b93          	mv	s7,a0
    3a14:	00060c13          	mv	s8,a2
    3a18:	00068a93          	mv	s5,a3
    3a1c:	00070b13          	mv	s6,a4
    3a20:	00078913          	mv	s2,a5
    3a24:	03010993          	add	s3,sp,48
    3a28:	01010493          	add	s1,sp,16
    3a2c:	00c10a13          	add	s4,sp,12
    3a30:	16058e63          	beqz	a1,3bac <core_bench_state+0x214>
    3a34:	00098593          	mv	a1,s3
    3a38:	000a0513          	mv	a0,s4
    3a3c:	c75ff0ef          	jal	36b0 <core_state_transition>
    3a40:	00251813          	sll	a6,a0,0x2
    3a44:	00980833          	add	a6,a6,s1
    3a48:	00c12703          	lw	a4,12(sp)
    3a4c:	00082783          	lw	a5,0(a6)
    3a50:	00074703          	lbu	a4,0(a4)
    3a54:	00178793          	add	a5,a5,1
    3a58:	00f82023          	sw	a5,0(a6)
    3a5c:	fc071ce3          	bnez	a4,3a34 <core_bench_state+0x9c>
    3a60:	00812623          	sw	s0,12(sp)
    3a64:	01740bb3          	add	s7,s0,s7
    3a68:	03747c63          	bgeu	s0,s7,3aa0 <core_bench_state+0x108>
    3a6c:	00100713          	li	a4,1
    3a70:	00040793          	mv	a5,s0
    3a74:	02c00613          	li	a2,44
    3a78:	0ceb1e63          	bne	s6,a4,3b54 <core_bench_state+0x1bc>
    3a7c:	0007c703          	lbu	a4,0(a5)
    3a80:	018746b3          	xor	a3,a4,s8
    3a84:	00c70463          	beq	a4,a2,3a8c <core_bench_state+0xf4>
    3a88:	00d78023          	sb	a3,0(a5)
    3a8c:	00178793          	add	a5,a5,1
    3a90:	ff77e6e3          	bltu	a5,s7,3a7c <core_bench_state+0xe4>
    3a94:	00044783          	lbu	a5,0(s0)
    3a98:	00c10a13          	add	s4,sp,12
    3a9c:	10078263          	beqz	a5,3ba0 <core_bench_state+0x208>
    3aa0:	00098593          	mv	a1,s3
    3aa4:	000a0513          	mv	a0,s4
    3aa8:	c09ff0ef          	jal	36b0 <core_state_transition>
    3aac:	00251613          	sll	a2,a0,0x2
    3ab0:	00960633          	add	a2,a2,s1
    3ab4:	00c12703          	lw	a4,12(sp)
    3ab8:	00062783          	lw	a5,0(a2)
    3abc:	00074703          	lbu	a4,0(a4)
    3ac0:	00178793          	add	a5,a5,1
    3ac4:	00f62023          	sw	a5,0(a2)
    3ac8:	fc071ce3          	bnez	a4,3aa0 <core_bench_state+0x108>
    3acc:	00812623          	sw	s0,12(sp)
    3ad0:	03747463          	bgeu	s0,s7,3af8 <core_bench_state+0x160>
    3ad4:	00100793          	li	a5,1
    3ad8:	0afb1463          	bne	s6,a5,3b80 <core_bench_state+0x1e8>
    3adc:	02c00693          	li	a3,44
    3ae0:	00044783          	lbu	a5,0(s0)
    3ae4:	0157c733          	xor	a4,a5,s5
    3ae8:	00d78463          	beq	a5,a3,3af0 <core_bench_state+0x158>
    3aec:	00e40023          	sb	a4,0(s0)
    3af0:	00140413          	add	s0,s0,1
    3af4:	ff7466e3          	bltu	s0,s7,3ae0 <core_bench_state+0x148>
    3af8:	00098413          	mv	s0,s3
    3afc:	0004a503          	lw	a0,0(s1)
    3b00:	00090593          	mv	a1,s2
    3b04:	00448493          	add	s1,s1,4
    3b08:	488000ef          	jal	3f90 <crcu32>
    3b0c:	00050593          	mv	a1,a0
    3b10:	00042503          	lw	a0,0(s0)
    3b14:	00440413          	add	s0,s0,4
    3b18:	478000ef          	jal	3f90 <crcu32>
    3b1c:	00050913          	mv	s2,a0
    3b20:	fd349ee3          	bne	s1,s3,3afc <core_bench_state+0x164>
    3b24:	07c12083          	lw	ra,124(sp)
    3b28:	07812403          	lw	s0,120(sp)
    3b2c:	07412483          	lw	s1,116(sp)
    3b30:	07012903          	lw	s2,112(sp)
    3b34:	06c12983          	lw	s3,108(sp)
    3b38:	06812a03          	lw	s4,104(sp)
    3b3c:	06412a83          	lw	s5,100(sp)
    3b40:	06012b03          	lw	s6,96(sp)
    3b44:	05c12b83          	lw	s7,92(sp)
    3b48:	05812c03          	lw	s8,88(sp)
    3b4c:	08010113          	add	sp,sp,128
    3b50:	00008067          	ret
    3b54:	0007c703          	lbu	a4,0(a5)
    3b58:	018746b3          	xor	a3,a4,s8
    3b5c:	00c70463          	beq	a4,a2,3b64 <core_bench_state+0x1cc>
    3b60:	00d78023          	sb	a3,0(a5)
    3b64:	016787b3          	add	a5,a5,s6
    3b68:	ff77e6e3          	bltu	a5,s7,3b54 <core_bench_state+0x1bc>
    3b6c:	00044783          	lbu	a5,0(s0)
    3b70:	00c10a13          	add	s4,sp,12
    3b74:	f20796e3          	bnez	a5,3aa0 <core_bench_state+0x108>
    3b78:	00812623          	sw	s0,12(sp)
    3b7c:	f7747ee3          	bgeu	s0,s7,3af8 <core_bench_state+0x160>
    3b80:	02c00693          	li	a3,44
    3b84:	00044783          	lbu	a5,0(s0)
    3b88:	0157c733          	xor	a4,a5,s5
    3b8c:	00d78463          	beq	a5,a3,3b94 <core_bench_state+0x1fc>
    3b90:	00e40023          	sb	a4,0(s0)
    3b94:	01640433          	add	s0,s0,s6
    3b98:	ff7466e3          	bltu	s0,s7,3b84 <core_bench_state+0x1ec>
    3b9c:	f5dff06f          	j	3af8 <core_bench_state+0x160>
    3ba0:	00812623          	sw	s0,12(sp)
    3ba4:	f3746ce3          	bltu	s0,s7,3adc <core_bench_state+0x144>
    3ba8:	f51ff06f          	j	3af8 <core_bench_state+0x160>
    3bac:	00a40bb3          	add	s7,s0,a0
    3bb0:	eb746ee3          	bltu	s0,s7,3a6c <core_bench_state+0xd4>
    3bb4:	f45ff06f          	j	3af8 <core_bench_state+0x160>

00003bb8 <get_seed_32>:
    3bb8:	00500793          	li	a5,5
    3bbc:	04a7ec63          	bltu	a5,a0,3c14 <get_seed_32+0x5c>
    3bc0:	000077b7          	lui	a5,0x7
    3bc4:	c0c78793          	add	a5,a5,-1012 # 6c0c <intpat+0x10>
    3bc8:	00251513          	sll	a0,a0,0x2
    3bcc:	00f50533          	add	a0,a0,a5
    3bd0:	00052783          	lw	a5,0(a0)
    3bd4:	00078067          	jr	a5
    3bd8:	800007b7          	lui	a5,0x80000
    3bdc:	3847a503          	lw	a0,900(a5) # 80000384 <seed5_volatile>
    3be0:	00008067          	ret
    3be4:	800007b7          	lui	a5,0x80000
    3be8:	3947a503          	lw	a0,916(a5) # 80000394 <seed1_volatile>
    3bec:	00008067          	ret
    3bf0:	800007b7          	lui	a5,0x80000
    3bf4:	3907a503          	lw	a0,912(a5) # 80000390 <seed2_volatile>
    3bf8:	00008067          	ret
    3bfc:	800007b7          	lui	a5,0x80000
    3c00:	38c7a503          	lw	a0,908(a5) # 8000038c <seed3_volatile>
    3c04:	00008067          	ret
    3c08:	800007b7          	lui	a5,0x80000
    3c0c:	3887a503          	lw	a0,904(a5) # 80000388 <seed4_volatile>
    3c10:	00008067          	ret
    3c14:	00000513          	li	a0,0
    3c18:	00008067          	ret

00003c1c <crcu8>:
    3c1c:	00b54733          	xor	a4,a0,a1
    3c20:	00177713          	and	a4,a4,1
    3c24:	ffffa637          	lui	a2,0xffffa
    3c28:	00160613          	add	a2,a2,1 # ffffa001 <stack_top+0x7ffda001>
    3c2c:	40e00733          	neg	a4,a4
    3c30:	0015d593          	srl	a1,a1,0x1
    3c34:	00c77733          	and	a4,a4,a2
    3c38:	00b74733          	xor	a4,a4,a1
    3c3c:	01071713          	sll	a4,a4,0x10
    3c40:	01075713          	srl	a4,a4,0x10
    3c44:	00155793          	srl	a5,a0,0x1
    3c48:	00e7c7b3          	xor	a5,a5,a4
    3c4c:	0017f793          	and	a5,a5,1
    3c50:	40f007b3          	neg	a5,a5
    3c54:	00c7f7b3          	and	a5,a5,a2
    3c58:	00175713          	srl	a4,a4,0x1
    3c5c:	00e7c7b3          	xor	a5,a5,a4
    3c60:	01079793          	sll	a5,a5,0x10
    3c64:	00255813          	srl	a6,a0,0x2
    3c68:	0107d793          	srl	a5,a5,0x10
    3c6c:	00f84833          	xor	a6,a6,a5
    3c70:	00187813          	and	a6,a6,1
    3c74:	41000833          	neg	a6,a6
    3c78:	00c87833          	and	a6,a6,a2
    3c7c:	0017d793          	srl	a5,a5,0x1
    3c80:	00f84833          	xor	a6,a6,a5
    3c84:	01081813          	sll	a6,a6,0x10
    3c88:	00355593          	srl	a1,a0,0x3
    3c8c:	01085813          	srl	a6,a6,0x10
    3c90:	0105c5b3          	xor	a1,a1,a6
    3c94:	0015f593          	and	a1,a1,1
    3c98:	40b005b3          	neg	a1,a1
    3c9c:	00c5f5b3          	and	a1,a1,a2
    3ca0:	00185813          	srl	a6,a6,0x1
    3ca4:	0105c5b3          	xor	a1,a1,a6
    3ca8:	01059593          	sll	a1,a1,0x10
    3cac:	00455693          	srl	a3,a0,0x4
    3cb0:	0105d593          	srl	a1,a1,0x10
    3cb4:	00b6c6b3          	xor	a3,a3,a1
    3cb8:	0016f693          	and	a3,a3,1
    3cbc:	40d006b3          	neg	a3,a3
    3cc0:	00c6f6b3          	and	a3,a3,a2
    3cc4:	0015d593          	srl	a1,a1,0x1
    3cc8:	00b6c6b3          	xor	a3,a3,a1
    3ccc:	01069693          	sll	a3,a3,0x10
    3cd0:	00555713          	srl	a4,a0,0x5
    3cd4:	0106d693          	srl	a3,a3,0x10
    3cd8:	00d74733          	xor	a4,a4,a3
    3cdc:	00177713          	and	a4,a4,1
    3ce0:	40e00733          	neg	a4,a4
    3ce4:	00c77733          	and	a4,a4,a2
    3ce8:	0016d693          	srl	a3,a3,0x1
    3cec:	00d74733          	xor	a4,a4,a3
    3cf0:	01071713          	sll	a4,a4,0x10
    3cf4:	00655793          	srl	a5,a0,0x6
    3cf8:	01075713          	srl	a4,a4,0x10
    3cfc:	00e7c7b3          	xor	a5,a5,a4
    3d00:	0017f793          	and	a5,a5,1
    3d04:	40f007b3          	neg	a5,a5
    3d08:	00c7f7b3          	and	a5,a5,a2
    3d0c:	00175713          	srl	a4,a4,0x1
    3d10:	00e7c7b3          	xor	a5,a5,a4
    3d14:	01079793          	sll	a5,a5,0x10
    3d18:	0107d793          	srl	a5,a5,0x10
    3d1c:	00755513          	srl	a0,a0,0x7
    3d20:	00f54533          	xor	a0,a0,a5
    3d24:	00157513          	and	a0,a0,1
    3d28:	40a00533          	neg	a0,a0
    3d2c:	00c57533          	and	a0,a0,a2
    3d30:	0017d793          	srl	a5,a5,0x1
    3d34:	00f54533          	xor	a0,a0,a5
    3d38:	01051513          	sll	a0,a0,0x10
    3d3c:	01055513          	srl	a0,a0,0x10
    3d40:	00008067          	ret

00003d44 <crcu16>:
    3d44:	0ff57313          	zext.b	t1,a0
    3d48:	00b346b3          	xor	a3,t1,a1
    3d4c:	0016f693          	and	a3,a3,1
    3d50:	ffffa737          	lui	a4,0xffffa
    3d54:	00170713          	add	a4,a4,1 # ffffa001 <stack_top+0x7ffda001>
    3d58:	40d006b3          	neg	a3,a3
    3d5c:	0015d593          	srl	a1,a1,0x1
    3d60:	00e6f6b3          	and	a3,a3,a4
    3d64:	00b6c6b3          	xor	a3,a3,a1
    3d68:	01069693          	sll	a3,a3,0x10
    3d6c:	0106d693          	srl	a3,a3,0x10
    3d70:	00135793          	srl	a5,t1,0x1
    3d74:	00d7c7b3          	xor	a5,a5,a3
    3d78:	0017f793          	and	a5,a5,1
    3d7c:	40f007b3          	neg	a5,a5
    3d80:	00e7f7b3          	and	a5,a5,a4
    3d84:	0016d693          	srl	a3,a3,0x1
    3d88:	00d7c7b3          	xor	a5,a5,a3
    3d8c:	01079793          	sll	a5,a5,0x10
    3d90:	00235813          	srl	a6,t1,0x2
    3d94:	0107d793          	srl	a5,a5,0x10
    3d98:	00f84833          	xor	a6,a6,a5
    3d9c:	00187813          	and	a6,a6,1
    3da0:	41000833          	neg	a6,a6
    3da4:	00e87833          	and	a6,a6,a4
    3da8:	0017d793          	srl	a5,a5,0x1
    3dac:	00f84833          	xor	a6,a6,a5
    3db0:	01081813          	sll	a6,a6,0x10
    3db4:	00335593          	srl	a1,t1,0x3
    3db8:	01085813          	srl	a6,a6,0x10
    3dbc:	0105c5b3          	xor	a1,a1,a6
    3dc0:	0015f593          	and	a1,a1,1
    3dc4:	40b005b3          	neg	a1,a1
    3dc8:	00e5f5b3          	and	a1,a1,a4
    3dcc:	00185813          	srl	a6,a6,0x1
    3dd0:	0105c5b3          	xor	a1,a1,a6
    3dd4:	01059593          	sll	a1,a1,0x10
    3dd8:	00435613          	srl	a2,t1,0x4
    3ddc:	0105d593          	srl	a1,a1,0x10
    3de0:	00b64633          	xor	a2,a2,a1
    3de4:	00167613          	and	a2,a2,1
    3de8:	40c00633          	neg	a2,a2
    3dec:	00e67633          	and	a2,a2,a4
    3df0:	0015d593          	srl	a1,a1,0x1
    3df4:	00b64633          	xor	a2,a2,a1
    3df8:	01061613          	sll	a2,a2,0x10
    3dfc:	00535693          	srl	a3,t1,0x5
    3e00:	01065613          	srl	a2,a2,0x10
    3e04:	00c6c6b3          	xor	a3,a3,a2
    3e08:	0016f693          	and	a3,a3,1
    3e0c:	40d006b3          	neg	a3,a3
    3e10:	00e6f6b3          	and	a3,a3,a4
    3e14:	00165613          	srl	a2,a2,0x1
    3e18:	00c6c6b3          	xor	a3,a3,a2
    3e1c:	01069693          	sll	a3,a3,0x10
    3e20:	00635793          	srl	a5,t1,0x6
    3e24:	0106d693          	srl	a3,a3,0x10
    3e28:	00d7c7b3          	xor	a5,a5,a3
    3e2c:	0017f793          	and	a5,a5,1
    3e30:	40f007b3          	neg	a5,a5
    3e34:	00e7f7b3          	and	a5,a5,a4
    3e38:	0016d693          	srl	a3,a3,0x1
    3e3c:	00d7c7b3          	xor	a5,a5,a3
    3e40:	01079793          	sll	a5,a5,0x10
    3e44:	0107d793          	srl	a5,a5,0x10
    3e48:	00735313          	srl	t1,t1,0x7
    3e4c:	00f34333          	xor	t1,t1,a5
    3e50:	00137313          	and	t1,t1,1
    3e54:	40600333          	neg	t1,t1
    3e58:	00e37333          	and	t1,t1,a4
    3e5c:	0017d793          	srl	a5,a5,0x1
    3e60:	00f34333          	xor	t1,t1,a5
    3e64:	01031313          	sll	t1,t1,0x10
    3e68:	00855513          	srl	a0,a0,0x8
    3e6c:	01035313          	srl	t1,t1,0x10
    3e70:	006547b3          	xor	a5,a0,t1
    3e74:	0017f793          	and	a5,a5,1
    3e78:	40f007b3          	neg	a5,a5
    3e7c:	00e7f7b3          	and	a5,a5,a4
    3e80:	00135313          	srl	t1,t1,0x1
    3e84:	0067c7b3          	xor	a5,a5,t1
    3e88:	01079793          	sll	a5,a5,0x10
    3e8c:	00155e93          	srl	t4,a0,0x1
    3e90:	0107d793          	srl	a5,a5,0x10
    3e94:	00255e13          	srl	t3,a0,0x2
    3e98:	00355893          	srl	a7,a0,0x3
    3e9c:	00455813          	srl	a6,a0,0x4
    3ea0:	00655693          	srl	a3,a0,0x6
    3ea4:	00755593          	srl	a1,a0,0x7
    3ea8:	00555613          	srl	a2,a0,0x5
    3eac:	00fec533          	xor	a0,t4,a5
    3eb0:	00157513          	and	a0,a0,1
    3eb4:	40a00533          	neg	a0,a0
    3eb8:	00e57533          	and	a0,a0,a4
    3ebc:	0017d793          	srl	a5,a5,0x1
    3ec0:	00f54533          	xor	a0,a0,a5
    3ec4:	01051513          	sll	a0,a0,0x10
    3ec8:	01055513          	srl	a0,a0,0x10
    3ecc:	00ae47b3          	xor	a5,t3,a0
    3ed0:	0017f793          	and	a5,a5,1
    3ed4:	40f007b3          	neg	a5,a5
    3ed8:	00e7f7b3          	and	a5,a5,a4
    3edc:	00155513          	srl	a0,a0,0x1
    3ee0:	00a7c7b3          	xor	a5,a5,a0
    3ee4:	01079793          	sll	a5,a5,0x10
    3ee8:	0107d793          	srl	a5,a5,0x10
    3eec:	00f8c533          	xor	a0,a7,a5
    3ef0:	00157513          	and	a0,a0,1
    3ef4:	40a00533          	neg	a0,a0
    3ef8:	00e57533          	and	a0,a0,a4
    3efc:	0017d793          	srl	a5,a5,0x1
    3f00:	00f54533          	xor	a0,a0,a5
    3f04:	01051513          	sll	a0,a0,0x10
    3f08:	01055513          	srl	a0,a0,0x10
    3f0c:	00a847b3          	xor	a5,a6,a0
    3f10:	0017f793          	and	a5,a5,1
    3f14:	40f007b3          	neg	a5,a5
    3f18:	00e7f7b3          	and	a5,a5,a4
    3f1c:	00155513          	srl	a0,a0,0x1
    3f20:	00a7c7b3          	xor	a5,a5,a0
    3f24:	01079793          	sll	a5,a5,0x10
    3f28:	0107d793          	srl	a5,a5,0x10
    3f2c:	00f64633          	xor	a2,a2,a5
    3f30:	00167613          	and	a2,a2,1
    3f34:	40c00633          	neg	a2,a2
    3f38:	00e67633          	and	a2,a2,a4
    3f3c:	0017d793          	srl	a5,a5,0x1
    3f40:	00f64633          	xor	a2,a2,a5
    3f44:	01061613          	sll	a2,a2,0x10
    3f48:	01065613          	srl	a2,a2,0x10
    3f4c:	00c6c7b3          	xor	a5,a3,a2
    3f50:	0017f793          	and	a5,a5,1
    3f54:	40f007b3          	neg	a5,a5
    3f58:	00e7f7b3          	and	a5,a5,a4
    3f5c:	00165613          	srl	a2,a2,0x1
    3f60:	00c7c7b3          	xor	a5,a5,a2
    3f64:	01079793          	sll	a5,a5,0x10
    3f68:	0107d793          	srl	a5,a5,0x10
    3f6c:	00f5c533          	xor	a0,a1,a5
    3f70:	00157513          	and	a0,a0,1
    3f74:	40a00533          	neg	a0,a0
    3f78:	00e57533          	and	a0,a0,a4
    3f7c:	0017d793          	srl	a5,a5,0x1
    3f80:	00f54533          	xor	a0,a0,a5
    3f84:	01051513          	sll	a0,a0,0x10
    3f88:	01055513          	srl	a0,a0,0x10
    3f8c:	00008067          	ret

00003f90 <crcu32>:
    3f90:	0ff57f13          	zext.b	t5,a0
    3f94:	00bf4633          	xor	a2,t5,a1
    3f98:	00167613          	and	a2,a2,1
    3f9c:	ffffa7b7          	lui	a5,0xffffa
    3fa0:	00178793          	add	a5,a5,1 # ffffa001 <stack_top+0x7ffda001>
    3fa4:	40c00633          	neg	a2,a2
    3fa8:	0015d593          	srl	a1,a1,0x1
    3fac:	00f67633          	and	a2,a2,a5
    3fb0:	00b64633          	xor	a2,a2,a1
    3fb4:	01061613          	sll	a2,a2,0x10
    3fb8:	01065613          	srl	a2,a2,0x10
    3fbc:	001f5693          	srl	a3,t5,0x1
    3fc0:	00c6c6b3          	xor	a3,a3,a2
    3fc4:	0016f693          	and	a3,a3,1
    3fc8:	40d006b3          	neg	a3,a3
    3fcc:	00165613          	srl	a2,a2,0x1
    3fd0:	00f6f6b3          	and	a3,a3,a5
    3fd4:	00c6c6b3          	xor	a3,a3,a2
    3fd8:	01069693          	sll	a3,a3,0x10
    3fdc:	002f5713          	srl	a4,t5,0x2
    3fe0:	0106d693          	srl	a3,a3,0x10
    3fe4:	00d74733          	xor	a4,a4,a3
    3fe8:	00177713          	and	a4,a4,1
    3fec:	40e00733          	neg	a4,a4
    3ff0:	0016d693          	srl	a3,a3,0x1
    3ff4:	00f77733          	and	a4,a4,a5
    3ff8:	00d74733          	xor	a4,a4,a3
    3ffc:	01071713          	sll	a4,a4,0x10
    4000:	003f5593          	srl	a1,t5,0x3
    4004:	01075713          	srl	a4,a4,0x10
    4008:	00e5c5b3          	xor	a1,a1,a4
    400c:	0015f593          	and	a1,a1,1
    4010:	40b005b3          	neg	a1,a1
    4014:	00175713          	srl	a4,a4,0x1
    4018:	00f5f5b3          	and	a1,a1,a5
    401c:	00e5c5b3          	xor	a1,a1,a4
    4020:	01059593          	sll	a1,a1,0x10
    4024:	004f5813          	srl	a6,t5,0x4
    4028:	0105d593          	srl	a1,a1,0x10
    402c:	00b84833          	xor	a6,a6,a1
    4030:	00187813          	and	a6,a6,1
    4034:	41000833          	neg	a6,a6
    4038:	0015d593          	srl	a1,a1,0x1
    403c:	00f87833          	and	a6,a6,a5
    4040:	00b84833          	xor	a6,a6,a1
    4044:	01081813          	sll	a6,a6,0x10
    4048:	005f5613          	srl	a2,t5,0x5
    404c:	01085813          	srl	a6,a6,0x10
    4050:	01064633          	xor	a2,a2,a6
    4054:	00167613          	and	a2,a2,1
    4058:	40c00633          	neg	a2,a2
    405c:	00185813          	srl	a6,a6,0x1
    4060:	00f67633          	and	a2,a2,a5
    4064:	01064633          	xor	a2,a2,a6
    4068:	01061613          	sll	a2,a2,0x10
    406c:	006f5693          	srl	a3,t5,0x6
    4070:	01065613          	srl	a2,a2,0x10
    4074:	00c6c6b3          	xor	a3,a3,a2
    4078:	0016f693          	and	a3,a3,1
    407c:	40d006b3          	neg	a3,a3
    4080:	00165613          	srl	a2,a2,0x1
    4084:	00f6f6b3          	and	a3,a3,a5
    4088:	00c6c6b3          	xor	a3,a3,a2
    408c:	01069693          	sll	a3,a3,0x10
    4090:	0106d693          	srl	a3,a3,0x10
    4094:	007f5f13          	srl	t5,t5,0x7
    4098:	00df4f33          	xor	t5,t5,a3
    409c:	001f7f13          	and	t5,t5,1
    40a0:	41e00f33          	neg	t5,t5
    40a4:	0016d693          	srl	a3,a3,0x1
    40a8:	00ff7f33          	and	t5,t5,a5
    40ac:	01051713          	sll	a4,a0,0x10
    40b0:	00df4f33          	xor	t5,t5,a3
    40b4:	01075713          	srl	a4,a4,0x10
    40b8:	010f1f13          	sll	t5,t5,0x10
    40bc:	00875713          	srl	a4,a4,0x8
    40c0:	010f5f13          	srl	t5,t5,0x10
    40c4:	01e746b3          	xor	a3,a4,t5
    40c8:	0016f693          	and	a3,a3,1
    40cc:	40d006b3          	neg	a3,a3
    40d0:	001f5f13          	srl	t5,t5,0x1
    40d4:	00f6f6b3          	and	a3,a3,a5
    40d8:	01e6c6b3          	xor	a3,a3,t5
    40dc:	01069693          	sll	a3,a3,0x10
    40e0:	00175593          	srl	a1,a4,0x1
    40e4:	0106d693          	srl	a3,a3,0x10
    40e8:	00d5c5b3          	xor	a1,a1,a3
    40ec:	0015f593          	and	a1,a1,1
    40f0:	40b005b3          	neg	a1,a1
    40f4:	00f5f5b3          	and	a1,a1,a5
    40f8:	0016d693          	srl	a3,a3,0x1
    40fc:	00d5c6b3          	xor	a3,a1,a3
    4100:	01069693          	sll	a3,a3,0x10
    4104:	00275e93          	srl	t4,a4,0x2
    4108:	0106d693          	srl	a3,a3,0x10
    410c:	00deceb3          	xor	t4,t4,a3
    4110:	001efe93          	and	t4,t4,1
    4114:	41d00eb3          	neg	t4,t4
    4118:	0016d693          	srl	a3,a3,0x1
    411c:	00fefeb3          	and	t4,t4,a5
    4120:	00deceb3          	xor	t4,t4,a3
    4124:	010e9e93          	sll	t4,t4,0x10
    4128:	00375e13          	srl	t3,a4,0x3
    412c:	010ede93          	srl	t4,t4,0x10
    4130:	01de46b3          	xor	a3,t3,t4
    4134:	0016f693          	and	a3,a3,1
    4138:	40d006b3          	neg	a3,a3
    413c:	001ede93          	srl	t4,t4,0x1
    4140:	00f6f6b3          	and	a3,a3,a5
    4144:	01d6c6b3          	xor	a3,a3,t4
    4148:	01069693          	sll	a3,a3,0x10
    414c:	00475313          	srl	t1,a4,0x4
    4150:	0106d693          	srl	a3,a3,0x10
    4154:	00d34333          	xor	t1,t1,a3
    4158:	00137313          	and	t1,t1,1
    415c:	40600333          	neg	t1,t1
    4160:	0016d693          	srl	a3,a3,0x1
    4164:	00f37333          	and	t1,t1,a5
    4168:	00d34333          	xor	t1,t1,a3
    416c:	01031313          	sll	t1,t1,0x10
    4170:	00575893          	srl	a7,a4,0x5
    4174:	01035313          	srl	t1,t1,0x10
    4178:	0068c6b3          	xor	a3,a7,t1
    417c:	0016f693          	and	a3,a3,1
    4180:	40d006b3          	neg	a3,a3
    4184:	00135313          	srl	t1,t1,0x1
    4188:	00f6f6b3          	and	a3,a3,a5
    418c:	0066c6b3          	xor	a3,a3,t1
    4190:	01069693          	sll	a3,a3,0x10
    4194:	00675813          	srl	a6,a4,0x6
    4198:	0106d693          	srl	a3,a3,0x10
    419c:	00d84833          	xor	a6,a6,a3
    41a0:	00187813          	and	a6,a6,1
    41a4:	41000833          	neg	a6,a6
    41a8:	0016d693          	srl	a3,a3,0x1
    41ac:	00f87833          	and	a6,a6,a5
    41b0:	00d84833          	xor	a6,a6,a3
    41b4:	01081813          	sll	a6,a6,0x10
    41b8:	00775613          	srl	a2,a4,0x7
    41bc:	01085813          	srl	a6,a6,0x10
    41c0:	010646b3          	xor	a3,a2,a6
    41c4:	0016f693          	and	a3,a3,1
    41c8:	40d006b3          	neg	a3,a3
    41cc:	00185813          	srl	a6,a6,0x1
    41d0:	00f6f6b3          	and	a3,a3,a5
    41d4:	0106c6b3          	xor	a3,a3,a6
    41d8:	01055713          	srl	a4,a0,0x10
    41dc:	01069693          	sll	a3,a3,0x10
    41e0:	0ff77713          	zext.b	a4,a4
    41e4:	ff010113          	add	sp,sp,-16
    41e8:	0106d693          	srl	a3,a3,0x10
    41ec:	00812623          	sw	s0,12(sp)
    41f0:	00275593          	srl	a1,a4,0x2
    41f4:	00175413          	srl	s0,a4,0x1
    41f8:	00375393          	srl	t2,a4,0x3
    41fc:	00475293          	srl	t0,a4,0x4
    4200:	00575f93          	srl	t6,a4,0x5
    4204:	00675f13          	srl	t5,a4,0x6
    4208:	00775e93          	srl	t4,a4,0x7
    420c:	00d74733          	xor	a4,a4,a3
    4210:	00177713          	and	a4,a4,1
    4214:	40e00733          	neg	a4,a4
    4218:	0016d693          	srl	a3,a3,0x1
    421c:	00f77733          	and	a4,a4,a5
    4220:	00d74733          	xor	a4,a4,a3
    4224:	01071713          	sll	a4,a4,0x10
    4228:	01075713          	srl	a4,a4,0x10
    422c:	00e44433          	xor	s0,s0,a4
    4230:	00147413          	and	s0,s0,1
    4234:	40800433          	neg	s0,s0
    4238:	00175713          	srl	a4,a4,0x1
    423c:	00f47433          	and	s0,s0,a5
    4240:	00e44433          	xor	s0,s0,a4
    4244:	01041413          	sll	s0,s0,0x10
    4248:	01045413          	srl	s0,s0,0x10
    424c:	0085c733          	xor	a4,a1,s0
    4250:	00177713          	and	a4,a4,1
    4254:	40e00733          	neg	a4,a4
    4258:	00145413          	srl	s0,s0,0x1
    425c:	00f77733          	and	a4,a4,a5
    4260:	00874733          	xor	a4,a4,s0
    4264:	01071713          	sll	a4,a4,0x10
    4268:	01075713          	srl	a4,a4,0x10
    426c:	00e3c3b3          	xor	t2,t2,a4
    4270:	0013f393          	and	t2,t2,1
    4274:	407003b3          	neg	t2,t2
    4278:	00175713          	srl	a4,a4,0x1
    427c:	00f3f3b3          	and	t2,t2,a5
    4280:	00e3c3b3          	xor	t2,t2,a4
    4284:	01039393          	sll	t2,t2,0x10
    4288:	0103d393          	srl	t2,t2,0x10
    428c:	0072c733          	xor	a4,t0,t2
    4290:	00177713          	and	a4,a4,1
    4294:	40e00733          	neg	a4,a4
    4298:	00f77733          	and	a4,a4,a5
    429c:	0013d393          	srl	t2,t2,0x1
    42a0:	00774733          	xor	a4,a4,t2
    42a4:	01071713          	sll	a4,a4,0x10
    42a8:	01075713          	srl	a4,a4,0x10
    42ac:	00efcfb3          	xor	t6,t6,a4
    42b0:	001fff93          	and	t6,t6,1
    42b4:	41f00fb3          	neg	t6,t6
    42b8:	00175713          	srl	a4,a4,0x1
    42bc:	00ffffb3          	and	t6,t6,a5
    42c0:	00efcfb3          	xor	t6,t6,a4
    42c4:	010f9f93          	sll	t6,t6,0x10
    42c8:	010fdf93          	srl	t6,t6,0x10
    42cc:	01ff4733          	xor	a4,t5,t6
    42d0:	00177713          	and	a4,a4,1
    42d4:	40e00733          	neg	a4,a4
    42d8:	00f77733          	and	a4,a4,a5
    42dc:	001fdf93          	srl	t6,t6,0x1
    42e0:	01f74733          	xor	a4,a4,t6
    42e4:	01071713          	sll	a4,a4,0x10
    42e8:	01075713          	srl	a4,a4,0x10
    42ec:	00eeceb3          	xor	t4,t4,a4
    42f0:	001efe93          	and	t4,t4,1
    42f4:	41d00eb3          	neg	t4,t4
    42f8:	00175713          	srl	a4,a4,0x1
    42fc:	00fefeb3          	and	t4,t4,a5
    4300:	00eeceb3          	xor	t4,t4,a4
    4304:	010e9e93          	sll	t4,t4,0x10
    4308:	01855513          	srl	a0,a0,0x18
    430c:	010ede93          	srl	t4,t4,0x10
    4310:	01d54733          	xor	a4,a0,t4
    4314:	00177713          	and	a4,a4,1
    4318:	40e00733          	neg	a4,a4
    431c:	00f77733          	and	a4,a4,a5
    4320:	001ede93          	srl	t4,t4,0x1
    4324:	01d74733          	xor	a4,a4,t4
    4328:	01071713          	sll	a4,a4,0x10
    432c:	01075713          	srl	a4,a4,0x10
    4330:	00155e13          	srl	t3,a0,0x1
    4334:	00255313          	srl	t1,a0,0x2
    4338:	00355893          	srl	a7,a0,0x3
    433c:	00455813          	srl	a6,a0,0x4
    4340:	00555613          	srl	a2,a0,0x5
    4344:	00655693          	srl	a3,a0,0x6
    4348:	00755593          	srl	a1,a0,0x7
    434c:	00ee4533          	xor	a0,t3,a4
    4350:	00157513          	and	a0,a0,1
    4354:	40a00533          	neg	a0,a0
    4358:	00175713          	srl	a4,a4,0x1
    435c:	00f57533          	and	a0,a0,a5
    4360:	00e54533          	xor	a0,a0,a4
    4364:	01051513          	sll	a0,a0,0x10
    4368:	01055513          	srl	a0,a0,0x10
    436c:	00a34733          	xor	a4,t1,a0
    4370:	00177713          	and	a4,a4,1
    4374:	40e00733          	neg	a4,a4
    4378:	00155513          	srl	a0,a0,0x1
    437c:	00f77733          	and	a4,a4,a5
    4380:	00a74733          	xor	a4,a4,a0
    4384:	01071713          	sll	a4,a4,0x10
    4388:	01075713          	srl	a4,a4,0x10
    438c:	00e8c533          	xor	a0,a7,a4
    4390:	00157513          	and	a0,a0,1
    4394:	40a00533          	neg	a0,a0
    4398:	00175713          	srl	a4,a4,0x1
    439c:	00f57533          	and	a0,a0,a5
    43a0:	00e54533          	xor	a0,a0,a4
    43a4:	01051513          	sll	a0,a0,0x10
    43a8:	01055513          	srl	a0,a0,0x10
    43ac:	00a84733          	xor	a4,a6,a0
    43b0:	00177713          	and	a4,a4,1
    43b4:	40e00733          	neg	a4,a4
    43b8:	00155513          	srl	a0,a0,0x1
    43bc:	00f77733          	and	a4,a4,a5
    43c0:	00a74733          	xor	a4,a4,a0
    43c4:	01071713          	sll	a4,a4,0x10
    43c8:	01075713          	srl	a4,a4,0x10
    43cc:	00e64633          	xor	a2,a2,a4
    43d0:	00167613          	and	a2,a2,1
    43d4:	40c00633          	neg	a2,a2
    43d8:	00175713          	srl	a4,a4,0x1
    43dc:	00f67633          	and	a2,a2,a5
    43e0:	00e64633          	xor	a2,a2,a4
    43e4:	01061613          	sll	a2,a2,0x10
    43e8:	01065613          	srl	a2,a2,0x10
    43ec:	00c6c733          	xor	a4,a3,a2
    43f0:	00177713          	and	a4,a4,1
    43f4:	40e00733          	neg	a4,a4
    43f8:	00f77733          	and	a4,a4,a5
    43fc:	00165613          	srl	a2,a2,0x1
    4400:	00c74733          	xor	a4,a4,a2
    4404:	01071713          	sll	a4,a4,0x10
    4408:	01075713          	srl	a4,a4,0x10
    440c:	00e5c533          	xor	a0,a1,a4
    4410:	00157513          	and	a0,a0,1
    4414:	40a00533          	neg	a0,a0
    4418:	00c12403          	lw	s0,12(sp)
    441c:	00f57533          	and	a0,a0,a5
    4420:	00175713          	srl	a4,a4,0x1
    4424:	00e54533          	xor	a0,a0,a4
    4428:	01051513          	sll	a0,a0,0x10
    442c:	01055513          	srl	a0,a0,0x10
    4430:	01010113          	add	sp,sp,16
    4434:	00008067          	ret

00004438 <crc16>:
    4438:	0ff57313          	zext.b	t1,a0
    443c:	00b346b3          	xor	a3,t1,a1
    4440:	0016f693          	and	a3,a3,1
    4444:	ffffa737          	lui	a4,0xffffa
    4448:	00170713          	add	a4,a4,1 # ffffa001 <stack_top+0x7ffda001>
    444c:	40d006b3          	neg	a3,a3
    4450:	0015d593          	srl	a1,a1,0x1
    4454:	00e6f6b3          	and	a3,a3,a4
    4458:	00b6c6b3          	xor	a3,a3,a1
    445c:	01069693          	sll	a3,a3,0x10
    4460:	0106d693          	srl	a3,a3,0x10
    4464:	00135793          	srl	a5,t1,0x1
    4468:	00d7c7b3          	xor	a5,a5,a3
    446c:	0017f793          	and	a5,a5,1
    4470:	40f007b3          	neg	a5,a5
    4474:	00e7f7b3          	and	a5,a5,a4
    4478:	0016d693          	srl	a3,a3,0x1
    447c:	00d7c7b3          	xor	a5,a5,a3
    4480:	01079793          	sll	a5,a5,0x10
    4484:	00235813          	srl	a6,t1,0x2
    4488:	0107d793          	srl	a5,a5,0x10
    448c:	00f84833          	xor	a6,a6,a5
    4490:	00187813          	and	a6,a6,1
    4494:	41000833          	neg	a6,a6
    4498:	00e87833          	and	a6,a6,a4
    449c:	0017d793          	srl	a5,a5,0x1
    44a0:	00f84833          	xor	a6,a6,a5
    44a4:	01081813          	sll	a6,a6,0x10
    44a8:	00335593          	srl	a1,t1,0x3
    44ac:	01085813          	srl	a6,a6,0x10
    44b0:	0105c5b3          	xor	a1,a1,a6
    44b4:	0015f593          	and	a1,a1,1
    44b8:	40b005b3          	neg	a1,a1
    44bc:	00e5f5b3          	and	a1,a1,a4
    44c0:	00185813          	srl	a6,a6,0x1
    44c4:	0105c5b3          	xor	a1,a1,a6
    44c8:	01059593          	sll	a1,a1,0x10
    44cc:	00435613          	srl	a2,t1,0x4
    44d0:	0105d593          	srl	a1,a1,0x10
    44d4:	00b64633          	xor	a2,a2,a1
    44d8:	00167613          	and	a2,a2,1
    44dc:	40c00633          	neg	a2,a2
    44e0:	00e67633          	and	a2,a2,a4
    44e4:	0015d593          	srl	a1,a1,0x1
    44e8:	00b64633          	xor	a2,a2,a1
    44ec:	01061613          	sll	a2,a2,0x10
    44f0:	00535693          	srl	a3,t1,0x5
    44f4:	01065613          	srl	a2,a2,0x10
    44f8:	00c6c6b3          	xor	a3,a3,a2
    44fc:	0016f693          	and	a3,a3,1
    4500:	40d006b3          	neg	a3,a3
    4504:	00e6f6b3          	and	a3,a3,a4
    4508:	00165613          	srl	a2,a2,0x1
    450c:	00c6c6b3          	xor	a3,a3,a2
    4510:	01069693          	sll	a3,a3,0x10
    4514:	00635793          	srl	a5,t1,0x6
    4518:	0106d693          	srl	a3,a3,0x10
    451c:	00d7c7b3          	xor	a5,a5,a3
    4520:	0017f793          	and	a5,a5,1
    4524:	40f007b3          	neg	a5,a5
    4528:	00e7f7b3          	and	a5,a5,a4
    452c:	0016d693          	srl	a3,a3,0x1
    4530:	00d7c7b3          	xor	a5,a5,a3
    4534:	01079793          	sll	a5,a5,0x10
    4538:	0107d793          	srl	a5,a5,0x10
    453c:	00735313          	srl	t1,t1,0x7
    4540:	00f34333          	xor	t1,t1,a5
    4544:	00137313          	and	t1,t1,1
    4548:	40600333          	neg	t1,t1
    454c:	00e37333          	and	t1,t1,a4
    4550:	0017d793          	srl	a5,a5,0x1
    4554:	00f34333          	xor	t1,t1,a5
    4558:	01051513          	sll	a0,a0,0x10
    455c:	01055513          	srl	a0,a0,0x10
    4560:	01031313          	sll	t1,t1,0x10
    4564:	00855513          	srl	a0,a0,0x8
    4568:	01035313          	srl	t1,t1,0x10
    456c:	006547b3          	xor	a5,a0,t1
    4570:	0017f793          	and	a5,a5,1
    4574:	40f007b3          	neg	a5,a5
    4578:	00e7f7b3          	and	a5,a5,a4
    457c:	00135313          	srl	t1,t1,0x1
    4580:	0067c7b3          	xor	a5,a5,t1
    4584:	01079793          	sll	a5,a5,0x10
    4588:	00155e93          	srl	t4,a0,0x1
    458c:	0107d793          	srl	a5,a5,0x10
    4590:	00255e13          	srl	t3,a0,0x2
    4594:	00355893          	srl	a7,a0,0x3
    4598:	00455813          	srl	a6,a0,0x4
    459c:	00655693          	srl	a3,a0,0x6
    45a0:	00755593          	srl	a1,a0,0x7
    45a4:	00555613          	srl	a2,a0,0x5
    45a8:	00fec533          	xor	a0,t4,a5
    45ac:	00157513          	and	a0,a0,1
    45b0:	40a00533          	neg	a0,a0
    45b4:	00e57533          	and	a0,a0,a4
    45b8:	0017d793          	srl	a5,a5,0x1
    45bc:	00f54533          	xor	a0,a0,a5
    45c0:	01051513          	sll	a0,a0,0x10
    45c4:	01055513          	srl	a0,a0,0x10
    45c8:	00ae47b3          	xor	a5,t3,a0
    45cc:	0017f793          	and	a5,a5,1
    45d0:	40f007b3          	neg	a5,a5
    45d4:	00e7f7b3          	and	a5,a5,a4
    45d8:	00155513          	srl	a0,a0,0x1
    45dc:	00a7c7b3          	xor	a5,a5,a0
    45e0:	01079793          	sll	a5,a5,0x10
    45e4:	0107d793          	srl	a5,a5,0x10
    45e8:	00f8c533          	xor	a0,a7,a5
    45ec:	00157513          	and	a0,a0,1
    45f0:	40a00533          	neg	a0,a0
    45f4:	00e57533          	and	a0,a0,a4
    45f8:	0017d793          	srl	a5,a5,0x1
    45fc:	00f54533          	xor	a0,a0,a5
    4600:	01051513          	sll	a0,a0,0x10
    4604:	01055513          	srl	a0,a0,0x10
    4608:	00a847b3          	xor	a5,a6,a0
    460c:	0017f793          	and	a5,a5,1
    4610:	40f007b3          	neg	a5,a5
    4614:	00e7f7b3          	and	a5,a5,a4
    4618:	00155513          	srl	a0,a0,0x1
    461c:	00a7c7b3          	xor	a5,a5,a0
    4620:	01079793          	sll	a5,a5,0x10
    4624:	0107d793          	srl	a5,a5,0x10
    4628:	00f64633          	xor	a2,a2,a5
    462c:	00167613          	and	a2,a2,1
    4630:	40c00633          	neg	a2,a2
    4634:	00e67633          	and	a2,a2,a4
    4638:	0017d793          	srl	a5,a5,0x1
    463c:	00f64633          	xor	a2,a2,a5
    4640:	01061613          	sll	a2,a2,0x10
    4644:	01065613          	srl	a2,a2,0x10
    4648:	00c6c7b3          	xor	a5,a3,a2
    464c:	0017f793          	and	a5,a5,1
    4650:	40f007b3          	neg	a5,a5
    4654:	00e7f7b3          	and	a5,a5,a4
    4658:	00165613          	srl	a2,a2,0x1
    465c:	00c7c7b3          	xor	a5,a5,a2
    4660:	01079793          	sll	a5,a5,0x10
    4664:	0107d793          	srl	a5,a5,0x10
    4668:	00f5c533          	xor	a0,a1,a5
    466c:	00157513          	and	a0,a0,1
    4670:	40a00533          	neg	a0,a0
    4674:	00e57533          	and	a0,a0,a4
    4678:	0017d793          	srl	a5,a5,0x1
    467c:	00f54533          	xor	a0,a0,a5
    4680:	01051513          	sll	a0,a0,0x10
    4684:	01055513          	srl	a0,a0,0x10
    4688:	00008067          	ret

0000468c <check_data_types>:
    468c:	00000513          	li	a0,0
    4690:	00008067          	ret

00004694 <barebones_clock>:
    4694:	ff010113          	add	sp,sp,-16
    4698:	00012623          	sw	zero,12(sp)
    469c:	00c12783          	lw	a5,12(sp)
    46a0:	40000737          	lui	a4,0x40000
    46a4:	00f12623          	sw	a5,12(sp)
    46a8:	00c12783          	lw	a5,12(sp)
    46ac:	00178793          	add	a5,a5,1
    46b0:	00f12623          	sw	a5,12(sp)
    46b4:	00c12783          	lw	a5,12(sp)
    46b8:	00278793          	add	a5,a5,2
    46bc:	00f12623          	sw	a5,12(sp)
    46c0:	00c12783          	lw	a5,12(sp)
    46c4:	00378793          	add	a5,a5,3
    46c8:	00f12623          	sw	a5,12(sp)
    46cc:	00c12783          	lw	a5,12(sp)
    46d0:	00478793          	add	a5,a5,4
    46d4:	00f12623          	sw	a5,12(sp)
    46d8:	00c12783          	lw	a5,12(sp)
    46dc:	00578793          	add	a5,a5,5
    46e0:	00f12623          	sw	a5,12(sp)
    46e4:	00c12783          	lw	a5,12(sp)
    46e8:	00678793          	add	a5,a5,6
    46ec:	00f12623          	sw	a5,12(sp)
    46f0:	00c12783          	lw	a5,12(sp)
    46f4:	00778793          	add	a5,a5,7
    46f8:	00f12623          	sw	a5,12(sp)
    46fc:	00c12783          	lw	a5,12(sp)
    4700:	00878793          	add	a5,a5,8
    4704:	00f12623          	sw	a5,12(sp)
    4708:	00c12783          	lw	a5,12(sp)
    470c:	00978793          	add	a5,a5,9
    4710:	00f12623          	sw	a5,12(sp)
    4714:	00072503          	lw	a0,0(a4) # 40000000 <__rodata_end+0x3fff8629>
    4718:	01010113          	add	sp,sp,16
    471c:	00008067          	ret

00004720 <start_time>:
    4720:	800007b7          	lui	a5,0x80000
    4724:	3807ae23          	sw	zero,924(a5) # 8000039c <start_time_val>
    4728:	00008067          	ret

0000472c <stop_time>:
    472c:	800007b7          	lui	a5,0x80000
    4730:	00a00713          	li	a4,10
    4734:	38e7ac23          	sw	a4,920(a5) # 80000398 <stop_time_val>
    4738:	00008067          	ret

0000473c <get_time>:
    473c:	80000737          	lui	a4,0x80000
    4740:	800007b7          	lui	a5,0x80000
    4744:	39872503          	lw	a0,920(a4) # 80000398 <stop_time_val>
    4748:	39c7a783          	lw	a5,924(a5) # 8000039c <start_time_val>
    474c:	40f50533          	sub	a0,a0,a5
    4750:	00008067          	ret

00004754 <time_in_secs>:
    4754:	00008067          	ret

00004758 <portable_init>:
    4758:	00100793          	li	a5,1
    475c:	00f50023          	sb	a5,0(a0)
    4760:	00008067          	ret

00004764 <portable_fini>:
    4764:	00050023          	sb	zero,0(a0)
    4768:	00008067          	ret

0000476c <number>:
    476c:	fa010113          	add	sp,sp,-96
    4770:	04812e23          	sw	s0,92(sp)
    4774:	04912c23          	sw	s1,88(sp)
    4778:	0407f813          	and	a6,a5,64
    477c:	18081863          	bnez	a6,490c <number+0x1a0>
    4780:	000083b7          	lui	t2,0x8
    4784:	0107f293          	and	t0,a5,16
    4788:	98038393          	add	t2,t2,-1664 # 7980 <intpat+0xd84>
    478c:	18029863          	bnez	t0,491c <number+0x1b0>
    4790:	0017f493          	and	s1,a5,1
    4794:	fff48f13          	add	t5,s1,-1
    4798:	ff0f7f13          	and	t5,t5,-16
    479c:	0027f813          	and	a6,a5,2
    47a0:	030f0f13          	add	t5,t5,48
    47a4:	0207ff93          	and	t6,a5,32
    47a8:	18080663          	beqz	a6,4934 <number+0x1c8>
    47ac:	5005c463          	bltz	a1,4cb4 <number+0x548>
    47b0:	0047f813          	and	a6,a5,4
    47b4:	4c081463          	bnez	a6,4c7c <number+0x510>
    47b8:	0087f793          	and	a5,a5,8
    47bc:	00000413          	li	s0,0
    47c0:	00078663          	beqz	a5,47cc <number+0x60>
    47c4:	fff68693          	add	a3,a3,-1
    47c8:	02000413          	li	s0,32
    47cc:	020f8063          	beqz	t6,47ec <number+0x80>
    47d0:	01000793          	li	a5,16
    47d4:	54f60063          	beq	a2,a5,4d14 <number+0x5a8>
    47d8:	00800793          	li	a5,8
    47dc:	40f607b3          	sub	a5,a2,a5
    47e0:	0017b793          	seqz	a5,a5
    47e4:	40f686b3          	sub	a3,a3,a5
    47e8:	02000f93          	li	t6,32
    47ec:	44059263          	bnez	a1,4c30 <number+0x4c4>
    47f0:	03000793          	li	a5,48
    47f4:	00f10623          	sb	a5,12(sp)
    47f8:	00000313          	li	t1,0
    47fc:	00100813          	li	a6,1
    4800:	00c10893          	add	a7,sp,12
    4804:	00080593          	mv	a1,a6
    4808:	00e85463          	bge	a6,a4,4810 <number+0xa4>
    480c:	00070593          	mv	a1,a4
    4810:	40b686b3          	sub	a3,a3,a1
    4814:	12049663          	bnez	s1,4940 <number+0x1d4>
    4818:	fff68e93          	add	t4,a3,-1
    481c:	12d05063          	blez	a3,493c <number+0x1d0>
    4820:	05312823          	sw	s3,80(sp)
    4824:	40a00e33          	neg	t3,a0
    4828:	00500393          	li	t2,5
    482c:	003e7793          	and	a5,t3,3
    4830:	00050993          	mv	s3,a0
    4834:	07d3f663          	bgeu	t2,t4,48a0 <number+0x134>
    4838:	05212a23          	sw	s2,84(sp)
    483c:	00050913          	mv	s2,a0
    4840:	02078663          	beqz	a5,486c <number+0x100>
    4844:	02000e93          	li	t4,32
    4848:	002e7e13          	and	t3,t3,2
    484c:	01d50023          	sb	t4,0(a0)
    4850:	420e0c63          	beqz	t3,4c88 <number+0x51c>
    4854:	01d500a3          	sb	t4,1(a0)
    4858:	00300e13          	li	t3,3
    485c:	4fc79c63          	bne	a5,t3,4d54 <number+0x5e8>
    4860:	01d50123          	sb	t4,2(a0)
    4864:	00350913          	add	s2,a0,3
    4868:	ffc68e93          	add	t4,a3,-4
    486c:	40f684b3          	sub	s1,a3,a5
    4870:	ffc4f393          	and	t2,s1,-4
    4874:	00f507b3          	add	a5,a0,a5
    4878:	20202537          	lui	a0,0x20202
    487c:	00778e33          	add	t3,a5,t2
    4880:	02050513          	add	a0,a0,32 # 20202020 <__rodata_end+0x201fa649>
    4884:	00a7a023          	sw	a0,0(a5)
    4888:	00478793          	add	a5,a5,4
    488c:	ffc79ce3          	bne	a5,t3,4884 <number+0x118>
    4890:	00790533          	add	a0,s2,t2
    4894:	407e8eb3          	sub	t4,t4,t2
    4898:	05412903          	lw	s2,84(sp)
    489c:	04748263          	beq	s1,t2,48e0 <number+0x174>
    48a0:	02000793          	li	a5,32
    48a4:	00f50023          	sb	a5,0(a0)
    48a8:	03d05c63          	blez	t4,48e0 <number+0x174>
    48ac:	00f500a3          	sb	a5,1(a0)
    48b0:	00100e13          	li	t3,1
    48b4:	03ce8663          	beq	t4,t3,48e0 <number+0x174>
    48b8:	00f50123          	sb	a5,2(a0)
    48bc:	00200e13          	li	t3,2
    48c0:	03ce8063          	beq	t4,t3,48e0 <number+0x174>
    48c4:	00f501a3          	sb	a5,3(a0)
    48c8:	00300e13          	li	t3,3
    48cc:	01ce8a63          	beq	t4,t3,48e0 <number+0x174>
    48d0:	00f50223          	sb	a5,4(a0)
    48d4:	00400e13          	li	t3,4
    48d8:	01ce8463          	beq	t4,t3,48e0 <number+0x174>
    48dc:	00f502a3          	sb	a5,5(a0)
    48e0:	00d98533          	add	a0,s3,a3
    48e4:	38041063          	bnez	s0,4c64 <number+0x4f8>
    48e8:	000f8a63          	beqz	t6,48fc <number+0x190>
    48ec:	00800793          	li	a5,8
    48f0:	40f60463          	beq	a2,a5,4cf8 <number+0x58c>
    48f4:	01000793          	li	a5,16
    48f8:	38f60e63          	beq	a2,a5,4c94 <number+0x528>
    48fc:	005036b3          	snez	a3,t0
    4900:	05012983          	lw	s3,80(sp)
    4904:	ffe68693          	add	a3,a3,-2
    4908:	15c0006f          	j	4a64 <number+0x2f8>
    490c:	000083b7          	lui	t2,0x8
    4910:	0107f293          	and	t0,a5,16
    4914:	9a838393          	add	t2,t2,-1624 # 79a8 <intpat+0xdac>
    4918:	e6028ce3          	beqz	t0,4790 <number+0x24>
    491c:	ffe7f793          	and	a5,a5,-2
    4920:	0027f813          	and	a6,a5,2
    4924:	01000493          	li	s1,16
    4928:	02000f13          	li	t5,32
    492c:	0207ff93          	and	t6,a5,32
    4930:	e6081ee3          	bnez	a6,47ac <number+0x40>
    4934:	00000413          	li	s0,0
    4938:	e95ff06f          	j	47cc <number+0x60>
    493c:	000e8693          	mv	a3,t4
    4940:	00040663          	beqz	s0,494c <number+0x1e0>
    4944:	00850023          	sb	s0,0(a0)
    4948:	00150513          	add	a0,a0,1
    494c:	000f8a63          	beqz	t6,4960 <number+0x1f4>
    4950:	00800793          	li	a5,8
    4954:	3ef60263          	beq	a2,a5,4d38 <number+0x5cc>
    4958:	01000793          	li	a5,16
    495c:	34f60063          	beq	a2,a5,4c9c <number+0x530>
    4960:	10029263          	bnez	t0,4a64 <number+0x2f8>
    4964:	fff68e93          	add	t4,a3,-1
    4968:	40d05c63          	blez	a3,4d80 <number+0x614>
    496c:	40a00633          	neg	a2,a0
    4970:	00500e13          	li	t3,5
    4974:	00367793          	and	a5,a2,3
    4978:	00050f93          	mv	t6,a0
    497c:	0bde7263          	bgeu	t3,t4,4a20 <number+0x2b4>
    4980:	00050293          	mv	t0,a0
    4984:	02078c63          	beqz	a5,49bc <number+0x250>
    4988:	01e50023          	sb	t5,0(a0)
    498c:	00267613          	and	a2,a2,2
    4990:	00150293          	add	t0,a0,1
    4994:	ffe68e93          	add	t4,a3,-2
    4998:	02060263          	beqz	a2,49bc <number+0x250>
    499c:	01e500a3          	sb	t5,1(a0)
    49a0:	00300613          	li	a2,3
    49a4:	00250293          	add	t0,a0,2
    49a8:	ffd68e93          	add	t4,a3,-3
    49ac:	00c79863          	bne	a5,a2,49bc <number+0x250>
    49b0:	01e50123          	sb	t5,2(a0)
    49b4:	00350293          	add	t0,a0,3
    49b8:	ffc68e93          	add	t4,a3,-4
    49bc:	ffff0637          	lui	a2,0xffff0
    49c0:	0ff60613          	add	a2,a2,255 # ffff00ff <stack_top+0x7ffd00ff>
    49c4:	008f1393          	sll	t2,t5,0x8
    49c8:	00cf7633          	and	a2,t5,a2
    49cc:	ff010e37          	lui	t3,0xff010
    49d0:	00766633          	or	a2,a2,t2
    49d4:	fffe0e13          	add	t3,t3,-1 # ff00ffff <stack_top+0x7efeffff>
    49d8:	01c67633          	and	a2,a2,t3
    49dc:	010f1393          	sll	t2,t5,0x10
    49e0:	00f0fe37          	lui	t3,0xf0f
    49e4:	00766633          	or	a2,a2,t2
    49e8:	0f0e0e13          	add	t3,t3,240 # f0f0f0 <__rodata_end+0xf07719>
    49ec:	40f683b3          	sub	t2,a3,a5
    49f0:	01c67633          	and	a2,a2,t3
    49f4:	00f507b3          	add	a5,a0,a5
    49f8:	ffc3fe13          	and	t3,t2,-4
    49fc:	018f1513          	sll	a0,t5,0x18
    4a00:	00a66633          	or	a2,a2,a0
    4a04:	00fe0533          	add	a0,t3,a5
    4a08:	00c7a023          	sw	a2,0(a5)
    4a0c:	00478793          	add	a5,a5,4
    4a10:	fef51ce3          	bne	a0,a5,4a08 <number+0x29c>
    4a14:	41ce8eb3          	sub	t4,t4,t3
    4a18:	01c28533          	add	a0,t0,t3
    4a1c:	05c38063          	beq	t2,t3,4a5c <number+0x2f0>
    4a20:	01e50023          	sb	t5,0(a0)
    4a24:	03d05c63          	blez	t4,4a5c <number+0x2f0>
    4a28:	01e500a3          	sb	t5,1(a0)
    4a2c:	00100793          	li	a5,1
    4a30:	02fe8663          	beq	t4,a5,4a5c <number+0x2f0>
    4a34:	01e50123          	sb	t5,2(a0)
    4a38:	00200793          	li	a5,2
    4a3c:	02fe8063          	beq	t4,a5,4a5c <number+0x2f0>
    4a40:	01e501a3          	sb	t5,3(a0)
    4a44:	00300793          	li	a5,3
    4a48:	00fe8a63          	beq	t4,a5,4a5c <number+0x2f0>
    4a4c:	01e50223          	sb	t5,4(a0)
    4a50:	00400793          	li	a5,4
    4a54:	00fe8463          	beq	t4,a5,4a5c <number+0x2f0>
    4a58:	01e502a3          	sb	t5,5(a0)
    4a5c:	00df8533          	add	a0,t6,a3
    4a60:	fff00693          	li	a3,-1
    4a64:	fff58e13          	add	t3,a1,-1
    4a68:	0ce85463          	bge	a6,a4,4b30 <number+0x3c4>
    4a6c:	410587b3          	sub	a5,a1,a6
    4a70:	fff78f13          	add	t5,a5,-1
    4a74:	40a00633          	neg	a2,a0
    4a78:	006f3e93          	sltiu	t4,t5,6
    4a7c:	00367713          	and	a4,a2,3
    4a80:	00050f93          	mv	t6,a0
    4a84:	060e9263          	bnez	t4,4ae8 <number+0x37c>
    4a88:	00050e93          	mv	t4,a0
    4a8c:	02070663          	beqz	a4,4ab8 <number+0x34c>
    4a90:	03000e13          	li	t3,48
    4a94:	00267613          	and	a2,a2,2
    4a98:	01c50023          	sb	t3,0(a0)
    4a9c:	24060863          	beqz	a2,4cec <number+0x580>
    4aa0:	01c500a3          	sb	t3,1(a0)
    4aa4:	00300613          	li	a2,3
    4aa8:	26c71c63          	bne	a4,a2,4d20 <number+0x5b4>
    4aac:	01c50123          	sb	t3,2(a0)
    4ab0:	00350e93          	add	t4,a0,3
    4ab4:	ffc58e13          	add	t3,a1,-4
    4ab8:	40e787b3          	sub	a5,a5,a4
    4abc:	30303637          	lui	a2,0x30303
    4ac0:	00e50733          	add	a4,a0,a4
    4ac4:	ffc7f513          	and	a0,a5,-4
    4ac8:	00a705b3          	add	a1,a4,a0
    4acc:	03060613          	add	a2,a2,48 # 30303030 <__rodata_end+0x302fb659>
    4ad0:	00c72023          	sw	a2,0(a4)
    4ad4:	00470713          	add	a4,a4,4
    4ad8:	feb71ce3          	bne	a4,a1,4ad0 <number+0x364>
    4adc:	04a78663          	beq	a5,a0,4b28 <number+0x3bc>
    4ae0:	40ae0e33          	sub	t3,t3,a0
    4ae4:	00ae8533          	add	a0,t4,a0
    4ae8:	03000793          	li	a5,48
    4aec:	00f50023          	sb	a5,0(a0)
    4af0:	fffe0713          	add	a4,t3,-1
    4af4:	03c85a63          	bge	a6,t3,4b28 <number+0x3bc>
    4af8:	00f500a3          	sb	a5,1(a0)
    4afc:	ffee0613          	add	a2,t3,-2
    4b00:	02e85463          	bge	a6,a4,4b28 <number+0x3bc>
    4b04:	00f50123          	sb	a5,2(a0)
    4b08:	ffde0713          	add	a4,t3,-3
    4b0c:	00c85e63          	bge	a6,a2,4b28 <number+0x3bc>
    4b10:	00f501a3          	sb	a5,3(a0)
    4b14:	ffce0e13          	add	t3,t3,-4
    4b18:	00e85863          	bge	a6,a4,4b28 <number+0x3bc>
    4b1c:	00f50223          	sb	a5,4(a0)
    4b20:	01c85463          	bge	a6,t3,4b28 <number+0x3bc>
    4b24:	00f502a3          	sb	a5,5(a0)
    4b28:	001f0793          	add	a5,t5,1
    4b2c:	01f78533          	add	a0,a5,t6
    4b30:	006887b3          	add	a5,a7,t1
    4b34:	00050713          	mv	a4,a0
    4b38:	0007c583          	lbu	a1,0(a5)
    4b3c:	00078613          	mv	a2,a5
    4b40:	00170713          	add	a4,a4,1
    4b44:	feb70fa3          	sb	a1,-1(a4)
    4b48:	fff78793          	add	a5,a5,-1
    4b4c:	fec896e3          	bne	a7,a2,4b38 <number+0x3cc>
    4b50:	006507b3          	add	a5,a0,t1
    4b54:	00178313          	add	t1,a5,1
    4b58:	00030513          	mv	a0,t1
    4b5c:	fff68593          	add	a1,a3,-1
    4b60:	0ad05c63          	blez	a3,4c18 <number+0x4ac>
    4b64:	fff7c613          	not	a2,a5
    4b68:	00500813          	li	a6,5
    4b6c:	00367713          	and	a4,a2,3
    4b70:	06b87263          	bgeu	a6,a1,4bd4 <number+0x468>
    4b74:	02070663          	beqz	a4,4ba0 <number+0x434>
    4b78:	02000593          	li	a1,32
    4b7c:	00267613          	and	a2,a2,2
    4b80:	00b780a3          	sb	a1,1(a5)
    4b84:	14060e63          	beqz	a2,4ce0 <number+0x574>
    4b88:	00b300a3          	sb	a1,1(t1)
    4b8c:	0037f613          	and	a2,a5,3
    4b90:	18061e63          	bnez	a2,4d2c <number+0x5c0>
    4b94:	00b30123          	sb	a1,2(t1)
    4b98:	00478513          	add	a0,a5,4
    4b9c:	ffc68593          	add	a1,a3,-4
    4ba0:	00f707b3          	add	a5,a4,a5
    4ba4:	40e68833          	sub	a6,a3,a4
    4ba8:	00178793          	add	a5,a5,1
    4bac:	ffc87893          	and	a7,a6,-4
    4bb0:	20202737          	lui	a4,0x20202
    4bb4:	01178633          	add	a2,a5,a7
    4bb8:	02070713          	add	a4,a4,32 # 20202020 <__rodata_end+0x201fa649>
    4bbc:	00e7a023          	sw	a4,0(a5)
    4bc0:	00478793          	add	a5,a5,4
    4bc4:	fef61ce3          	bne	a2,a5,4bbc <number+0x450>
    4bc8:	05180663          	beq	a6,a7,4c14 <number+0x4a8>
    4bcc:	411585b3          	sub	a1,a1,a7
    4bd0:	01150533          	add	a0,a0,a7
    4bd4:	02000793          	li	a5,32
    4bd8:	00f50023          	sb	a5,0(a0)
    4bdc:	02b05c63          	blez	a1,4c14 <number+0x4a8>
    4be0:	00f500a3          	sb	a5,1(a0)
    4be4:	00100713          	li	a4,1
    4be8:	02e58663          	beq	a1,a4,4c14 <number+0x4a8>
    4bec:	00f50123          	sb	a5,2(a0)
    4bf0:	00200713          	li	a4,2
    4bf4:	02e58063          	beq	a1,a4,4c14 <number+0x4a8>
    4bf8:	00f501a3          	sb	a5,3(a0)
    4bfc:	00300713          	li	a4,3
    4c00:	00e58a63          	beq	a1,a4,4c14 <number+0x4a8>
    4c04:	00f50223          	sb	a5,4(a0)
    4c08:	00400713          	li	a4,4
    4c0c:	00e58463          	beq	a1,a4,4c14 <number+0x4a8>
    4c10:	00f502a3          	sb	a5,5(a0)
    4c14:	00668533          	add	a0,a3,t1
    4c18:	05c12403          	lw	s0,92(sp)
    4c1c:	05812483          	lw	s1,88(sp)
    4c20:	06010113          	add	sp,sp,96
    4c24:	00008067          	ret
    4c28:	00078693          	mv	a3,a5
    4c2c:	02d00413          	li	s0,45
    4c30:	00000813          	li	a6,0
    4c34:	00c10893          	add	a7,sp,12
    4c38:	02c5f7b3          	remu	a5,a1,a2
    4c3c:	00080313          	mv	t1,a6
    4c40:	00180813          	add	a6,a6,1
    4c44:	01088eb3          	add	t4,a7,a6
    4c48:	00058e13          	mv	t3,a1
    4c4c:	00f387b3          	add	a5,t2,a5
    4c50:	0007c783          	lbu	a5,0(a5)
    4c54:	02c5d5b3          	divu	a1,a1,a2
    4c58:	fefe8fa3          	sb	a5,-1(t4)
    4c5c:	fcce7ee3          	bgeu	t3,a2,4c38 <number+0x4cc>
    4c60:	ba5ff06f          	j	4804 <number+0x98>
    4c64:	00850023          	sb	s0,0(a0)
    4c68:	00150513          	add	a0,a0,1
    4c6c:	080f8c63          	beqz	t6,4d04 <number+0x598>
    4c70:	05012983          	lw	s3,80(sp)
    4c74:	fff00693          	li	a3,-1
    4c78:	cd9ff06f          	j	4950 <number+0x1e4>
    4c7c:	fff68693          	add	a3,a3,-1
    4c80:	02b00413          	li	s0,43
    4c84:	b49ff06f          	j	47cc <number+0x60>
    4c88:	00150913          	add	s2,a0,1
    4c8c:	ffe68e93          	add	t4,a3,-2
    4c90:	bddff06f          	j	486c <number+0x100>
    4c94:	05012983          	lw	s3,80(sp)
    4c98:	fff00693          	li	a3,-1
    4c9c:	03000613          	li	a2,48
    4ca0:	07800793          	li	a5,120
    4ca4:	00c50023          	sb	a2,0(a0)
    4ca8:	00f500a3          	sb	a5,1(a0)
    4cac:	00250513          	add	a0,a0,2
    4cb0:	cb1ff06f          	j	4960 <number+0x1f4>
    4cb4:	40b005b3          	neg	a1,a1
    4cb8:	fff68793          	add	a5,a3,-1
    4cbc:	f60f86e3          	beqz	t6,4c28 <number+0x4bc>
    4cc0:	01000813          	li	a6,16
    4cc4:	0b060663          	beq	a2,a6,4d70 <number+0x604>
    4cc8:	00800813          	li	a6,8
    4ccc:	09060a63          	beq	a2,a6,4d60 <number+0x5f4>
    4cd0:	00078693          	mv	a3,a5
    4cd4:	02d00413          	li	s0,45
    4cd8:	02000f93          	li	t6,32
    4cdc:	f55ff06f          	j	4c30 <number+0x4c4>
    4ce0:	00278513          	add	a0,a5,2
    4ce4:	ffe68593          	add	a1,a3,-2
    4ce8:	eb9ff06f          	j	4ba0 <number+0x434>
    4cec:	ffe58e13          	add	t3,a1,-2
    4cf0:	00150e93          	add	t4,a0,1
    4cf4:	dc5ff06f          	j	4ab8 <number+0x34c>
    4cf8:	03000793          	li	a5,48
    4cfc:	00f50023          	sb	a5,0(a0)
    4d00:	00150513          	add	a0,a0,1
    4d04:	04029263          	bnez	t0,4d48 <number+0x5dc>
    4d08:	05012983          	lw	s3,80(sp)
    4d0c:	ffe00693          	li	a3,-2
    4d10:	d55ff06f          	j	4a64 <number+0x2f8>
    4d14:	ffe68693          	add	a3,a3,-2
    4d18:	02000f93          	li	t6,32
    4d1c:	ad1ff06f          	j	47ec <number+0x80>
    4d20:	ffd58e13          	add	t3,a1,-3
    4d24:	00250e93          	add	t4,a0,2
    4d28:	d91ff06f          	j	4ab8 <number+0x34c>
    4d2c:	00378513          	add	a0,a5,3
    4d30:	ffd68593          	add	a1,a3,-3
    4d34:	e6dff06f          	j	4ba0 <number+0x434>
    4d38:	03000793          	li	a5,48
    4d3c:	00f50023          	sb	a5,0(a0)
    4d40:	00150513          	add	a0,a0,1
    4d44:	c1dff06f          	j	4960 <number+0x1f4>
    4d48:	05012983          	lw	s3,80(sp)
    4d4c:	fff00693          	li	a3,-1
    4d50:	d15ff06f          	j	4a64 <number+0x2f8>
    4d54:	00250913          	add	s2,a0,2
    4d58:	ffd68e93          	add	t4,a3,-3
    4d5c:	b11ff06f          	j	486c <number+0x100>
    4d60:	ffe68693          	add	a3,a3,-2
    4d64:	02d00413          	li	s0,45
    4d68:	02000f93          	li	t6,32
    4d6c:	ec5ff06f          	j	4c30 <number+0x4c4>
    4d70:	ffd68693          	add	a3,a3,-3
    4d74:	02d00413          	li	s0,45
    4d78:	02000f93          	li	t6,32
    4d7c:	eb5ff06f          	j	4c30 <number+0x4c4>
    4d80:	000e8693          	mv	a3,t4
    4d84:	ce1ff06f          	j	4a64 <number+0x2f8>

00004d88 <uart_send_char>:
    4d88:	ff010113          	add	sp,sp,-16
    4d8c:	00012623          	sw	zero,12(sp)
    4d90:	00c12783          	lw	a5,12(sp)
    4d94:	40002737          	lui	a4,0x40002
    4d98:	00f12623          	sw	a5,12(sp)
    4d9c:	00c12783          	lw	a5,12(sp)
    4da0:	00178793          	add	a5,a5,1
    4da4:	00f12623          	sw	a5,12(sp)
    4da8:	00c12783          	lw	a5,12(sp)
    4dac:	00278793          	add	a5,a5,2
    4db0:	00f12623          	sw	a5,12(sp)
    4db4:	00c12783          	lw	a5,12(sp)
    4db8:	00378793          	add	a5,a5,3
    4dbc:	00f12623          	sw	a5,12(sp)
    4dc0:	00c12783          	lw	a5,12(sp)
    4dc4:	00478793          	add	a5,a5,4
    4dc8:	00f12623          	sw	a5,12(sp)
    4dcc:	00c12783          	lw	a5,12(sp)
    4dd0:	00578793          	add	a5,a5,5
    4dd4:	00f12623          	sw	a5,12(sp)
    4dd8:	00c12783          	lw	a5,12(sp)
    4ddc:	00678793          	add	a5,a5,6
    4de0:	00f12623          	sw	a5,12(sp)
    4de4:	00c12783          	lw	a5,12(sp)
    4de8:	00778793          	add	a5,a5,7
    4dec:	00f12623          	sw	a5,12(sp)
    4df0:	00c12783          	lw	a5,12(sp)
    4df4:	00878793          	add	a5,a5,8
    4df8:	00f12623          	sw	a5,12(sp)
    4dfc:	00c12783          	lw	a5,12(sp)
    4e00:	00978793          	add	a5,a5,9
    4e04:	00f12623          	sw	a5,12(sp)
    4e08:	00a70023          	sb	a0,0(a4) # 40002000 <__rodata_end+0x3fffa629>
    4e0c:	01010113          	add	sp,sp,16
    4e10:	00008067          	ret

00004e14 <ee_printf>:
    4e14:	e7010113          	add	sp,sp,-400
    4e18:	16912223          	sw	s1,356(sp)
    4e1c:	16112623          	sw	ra,364(sp)
    4e20:	15412c23          	sw	s4,344(sp)
    4e24:	16b12a23          	sw	a1,372(sp)
    4e28:	16c12c23          	sw	a2,376(sp)
    4e2c:	16d12e23          	sw	a3,380(sp)
    4e30:	18e12023          	sw	a4,384(sp)
    4e34:	18f12223          	sw	a5,388(sp)
    4e38:	19012423          	sw	a6,392(sp)
    4e3c:	19112623          	sw	a7,396(sp)
    4e40:	00054783          	lbu	a5,0(a0)
    4e44:	17410493          	add	s1,sp,372
    4e48:	00912a23          	sw	s1,20(sp)
    4e4c:	00079463          	bnez	a5,4e54 <ee_printf+0x40>
    4e50:	0340106f          	j	5e84 <ee_printf+0x1070>
    4e54:	03010a13          	add	s4,sp,48
    4e58:	16812423          	sw	s0,360(sp)
    4e5c:	17212023          	sw	s2,352(sp)
    4e60:	15312e23          	sw	s3,348(sp)
    4e64:	15712623          	sw	s7,332(sp)
    4e68:	15812423          	sw	s8,328(sp)
    4e6c:	13b12e23          	sw	s11,316(sp)
    4e70:	00050313          	mv	t1,a0
    4e74:	15512a23          	sw	s5,340(sp)
    4e78:	000a0513          	mv	a0,s4
    4e7c:	02500993          	li	s3,37
    4e80:	01000413          	li	s0,16
    4e84:	00007937          	lui	s2,0x7
    4e88:	00900c13          	li	s8,9
    4e8c:	02e00b93          	li	s7,46
    4e90:	04c00d93          	li	s11,76
    4e94:	0f378863          	beq	a5,s3,4f84 <ee_printf+0x170>
    4e98:	00f50023          	sb	a5,0(a0)
    4e9c:	00134783          	lbu	a5,1(t1)
    4ea0:	00150513          	add	a0,a0,1
    4ea4:	00130313          	add	t1,t1,1
    4ea8:	fe0796e3          	bnez	a5,4e94 <ee_printf+0x80>
    4eac:	16812403          	lw	s0,360(sp)
    4eb0:	16012903          	lw	s2,352(sp)
    4eb4:	15c12983          	lw	s3,348(sp)
    4eb8:	15412a83          	lw	s5,340(sp)
    4ebc:	14c12b83          	lw	s7,332(sp)
    4ec0:	14812c03          	lw	s8,328(sp)
    4ec4:	13c12d83          	lw	s11,316(sp)
    4ec8:	00050023          	sb	zero,0(a0)
    4ecc:	03014683          	lbu	a3,48(sp)
    4ed0:	78068ee3          	beqz	a3,5e6c <ee_printf+0x1058>
    4ed4:	000a0793          	mv	a5,s4
    4ed8:	400025b7          	lui	a1,0x40002
    4edc:	00012c23          	sw	zero,24(sp)
    4ee0:	01812703          	lw	a4,24(sp)
    4ee4:	00078613          	mv	a2,a5
    4ee8:	00178793          	add	a5,a5,1
    4eec:	00e12c23          	sw	a4,24(sp)
    4ef0:	01812703          	lw	a4,24(sp)
    4ef4:	00170713          	add	a4,a4,1
    4ef8:	00e12c23          	sw	a4,24(sp)
    4efc:	01812703          	lw	a4,24(sp)
    4f00:	00270713          	add	a4,a4,2
    4f04:	00e12c23          	sw	a4,24(sp)
    4f08:	01812703          	lw	a4,24(sp)
    4f0c:	00370713          	add	a4,a4,3
    4f10:	00e12c23          	sw	a4,24(sp)
    4f14:	01812703          	lw	a4,24(sp)
    4f18:	00470713          	add	a4,a4,4
    4f1c:	00e12c23          	sw	a4,24(sp)
    4f20:	01812703          	lw	a4,24(sp)
    4f24:	00570713          	add	a4,a4,5
    4f28:	00e12c23          	sw	a4,24(sp)
    4f2c:	01812703          	lw	a4,24(sp)
    4f30:	00670713          	add	a4,a4,6
    4f34:	00e12c23          	sw	a4,24(sp)
    4f38:	01812703          	lw	a4,24(sp)
    4f3c:	00770713          	add	a4,a4,7
    4f40:	00e12c23          	sw	a4,24(sp)
    4f44:	01812703          	lw	a4,24(sp)
    4f48:	00870713          	add	a4,a4,8
    4f4c:	00e12c23          	sw	a4,24(sp)
    4f50:	01812703          	lw	a4,24(sp)
    4f54:	00970713          	add	a4,a4,9
    4f58:	00e12c23          	sw	a4,24(sp)
    4f5c:	00d58023          	sb	a3,0(a1) # 40002000 <__rodata_end+0x3fffa629>
    4f60:	0007c683          	lbu	a3,0(a5)
    4f64:	f6069ce3          	bnez	a3,4edc <ee_printf+0xc8>
    4f68:	16c12083          	lw	ra,364(sp)
    4f6c:	41460633          	sub	a2,a2,s4
    4f70:	16412483          	lw	s1,356(sp)
    4f74:	15812a03          	lw	s4,344(sp)
    4f78:	00160513          	add	a0,a2,1
    4f7c:	19010113          	add	sp,sp,400
    4f80:	00008067          	ret
    4f84:	00000793          	li	a5,0
    4f88:	00134583          	lbu	a1,1(t1)
    4f8c:	00130613          	add	a2,t1,1
    4f90:	fe058713          	add	a4,a1,-32
    4f94:	0ff77713          	zext.b	a4,a4
    4f98:	00e46c63          	bltu	s0,a4,4fb0 <ee_printf+0x19c>
    4f9c:	00271713          	sll	a4,a4,0x2
    4fa0:	c2490693          	add	a3,s2,-988 # 6c24 <intpat+0x28>
    4fa4:	00d70733          	add	a4,a4,a3
    4fa8:	00072703          	lw	a4,0(a4)
    4fac:	00070067          	jr	a4
    4fb0:	fd058713          	add	a4,a1,-48
    4fb4:	0ff77713          	zext.b	a4,a4
    4fb8:	10ec7c63          	bgeu	s8,a4,50d0 <ee_printf+0x2bc>
    4fbc:	02a00713          	li	a4,42
    4fc0:	fff00693          	li	a3,-1
    4fc4:	14e58063          	beq	a1,a4,5104 <ee_printf+0x2f0>
    4fc8:	fff00713          	li	a4,-1
    4fcc:	0d758c63          	beq	a1,s7,50a4 <ee_printf+0x290>
    4fd0:	0df5f813          	and	a6,a1,223
    4fd4:	09b80e63          	beq	a6,s11,5070 <ee_printf+0x25c>
    4fd8:	fbf58813          	add	a6,a1,-65
    4fdc:	0ff87813          	zext.b	a6,a6
    4fe0:	03700893          	li	a7,55
    4fe4:	0508ec63          	bltu	a7,a6,503c <ee_printf+0x228>
    4fe8:	000078b7          	lui	a7,0x7
    4fec:	00281813          	sll	a6,a6,0x2
    4ff0:	c6888893          	add	a7,a7,-920 # 6c68 <intpat+0x6c>
    4ff4:	01180833          	add	a6,a6,a7
    4ff8:	00082803          	lw	a6,0(a6)
    4ffc:	00080067          	jr	a6
    5000:	0017e793          	or	a5,a5,1
    5004:	00060313          	mv	t1,a2
    5008:	f81ff06f          	j	4f88 <ee_printf+0x174>
    500c:	0107e793          	or	a5,a5,16
    5010:	00060313          	mv	t1,a2
    5014:	f75ff06f          	j	4f88 <ee_printf+0x174>
    5018:	0047e793          	or	a5,a5,4
    501c:	00060313          	mv	t1,a2
    5020:	f69ff06f          	j	4f88 <ee_printf+0x174>
    5024:	0207e793          	or	a5,a5,32
    5028:	00060313          	mv	t1,a2
    502c:	f5dff06f          	j	4f88 <ee_printf+0x174>
    5030:	0087e793          	or	a5,a5,8
    5034:	00060313          	mv	t1,a2
    5038:	f51ff06f          	j	4f88 <ee_printf+0x174>
    503c:	00060a93          	mv	s5,a2
    5040:	02500793          	li	a5,37
    5044:	00f58a63          	beq	a1,a5,5058 <ee_printf+0x244>
    5048:	00f50023          	sb	a5,0(a0)
    504c:	000ac583          	lbu	a1,0(s5)
    5050:	00150513          	add	a0,a0,1
    5054:	e4058ce3          	beqz	a1,4eac <ee_printf+0x98>
    5058:	00b50023          	sb	a1,0(a0)
    505c:	001ac783          	lbu	a5,1(s5)
    5060:	00150513          	add	a0,a0,1
    5064:	001a8313          	add	t1,s5,1
    5068:	e20796e3          	bnez	a5,4e94 <ee_printf+0x80>
    506c:	e41ff06f          	j	4eac <ee_printf+0x98>
    5070:	00058313          	mv	t1,a1
    5074:	00164583          	lbu	a1,1(a2)
    5078:	03700893          	li	a7,55
    507c:	00160a93          	add	s5,a2,1
    5080:	fbf58813          	add	a6,a1,-65
    5084:	0ff87813          	zext.b	a6,a6
    5088:	fb08ece3          	bltu	a7,a6,5040 <ee_printf+0x22c>
    508c:	000078b7          	lui	a7,0x7
    5090:	00281813          	sll	a6,a6,0x2
    5094:	d4888893          	add	a7,a7,-696 # 6d48 <intpat+0x14c>
    5098:	01180833          	add	a6,a6,a7
    509c:	00082803          	lw	a6,0(a6)
    50a0:	00080067          	jr	a6
    50a4:	00164583          	lbu	a1,1(a2)
    50a8:	00900893          	li	a7,9
    50ac:	00160813          	add	a6,a2,1
    50b0:	fd058713          	add	a4,a1,-48
    50b4:	0ff77713          	zext.b	a4,a4
    50b8:	36e8fa63          	bgeu	a7,a4,542c <ee_printf+0x618>
    50bc:	02a00713          	li	a4,42
    50c0:	3ae58863          	beq	a1,a4,5470 <ee_printf+0x65c>
    50c4:	00080613          	mv	a2,a6
    50c8:	00000713          	li	a4,0
    50cc:	f05ff06f          	j	4fd0 <ee_printf+0x1bc>
    50d0:	00000693          	li	a3,0
    50d4:	00900813          	li	a6,9
    50d8:	00269713          	sll	a4,a3,0x2
    50dc:	00d70733          	add	a4,a4,a3
    50e0:	00160613          	add	a2,a2,1
    50e4:	00171713          	sll	a4,a4,0x1
    50e8:	00b70733          	add	a4,a4,a1
    50ec:	00064583          	lbu	a1,0(a2)
    50f0:	fd070693          	add	a3,a4,-48
    50f4:	fd058713          	add	a4,a1,-48
    50f8:	0ff77713          	zext.b	a4,a4
    50fc:	fce87ee3          	bgeu	a6,a4,50d8 <ee_printf+0x2c4>
    5100:	ec9ff06f          	j	4fc8 <ee_printf+0x1b4>
    5104:	0004a683          	lw	a3,0(s1)
    5108:	00234583          	lbu	a1,2(t1)
    510c:	00448493          	add	s1,s1,4
    5110:	00230613          	add	a2,t1,2
    5114:	ea06dae3          	bgez	a3,4fc8 <ee_printf+0x1b4>
    5118:	40d006b3          	neg	a3,a3
    511c:	0107e793          	or	a5,a5,16
    5120:	ea9ff06f          	j	4fc8 <ee_printf+0x1b4>
    5124:	0407e793          	or	a5,a5,64
    5128:	01000613          	li	a2,16
    512c:	0004a583          	lw	a1,0(s1)
    5130:	00448493          	add	s1,s1,4
    5134:	e38ff0ef          	jal	476c <number>
    5138:	001ac783          	lbu	a5,1(s5)
    513c:	001a8313          	add	t1,s5,1
    5140:	d4079ae3          	bnez	a5,4e94 <ee_printf+0x80>
    5144:	d69ff06f          	j	4eac <ee_printf+0x98>
    5148:	00060a93          	mv	s5,a2
    514c:	00a00613          	li	a2,10
    5150:	fddff06f          	j	512c <ee_printf+0x318>
    5154:	00060a93          	mv	s5,a2
    5158:	0004a583          	lw	a1,0(s1)
    515c:	00448493          	add	s1,s1,4
    5160:	32058e63          	beqz	a1,549c <ee_printf+0x688>
    5164:	0005c603          	lbu	a2,0(a1)
    5168:	0107f793          	and	a5,a5,16
    516c:	00061463          	bnez	a2,5174 <ee_printf+0x360>
    5170:	10c0106f          	j	627c <ee_printf+0x1468>
    5174:	00e58733          	add	a4,a1,a4
    5178:	00058613          	mv	a2,a1
    517c:	00e60863          	beq	a2,a4,518c <ee_printf+0x378>
    5180:	00164803          	lbu	a6,1(a2)
    5184:	00160613          	add	a2,a2,1
    5188:	fe081ae3          	bnez	a6,517c <ee_printf+0x368>
    518c:	40b60633          	sub	a2,a2,a1
    5190:	30078e63          	beqz	a5,54ac <ee_printf+0x698>
    5194:	08c05663          	blez	a2,5220 <ee_printf+0x40c>
    5198:	fff60793          	add	a5,a2,-1
    519c:	00600713          	li	a4,6
    51a0:	00f76463          	bltu	a4,a5,51a8 <ee_printf+0x394>
    51a4:	0100106f          	j	61b4 <ee_printf+0x13a0>
    51a8:	00a5e7b3          	or	a5,a1,a0
    51ac:	0037f793          	and	a5,a5,3
    51b0:	00158713          	add	a4,a1,1
    51b4:	00078463          	beqz	a5,51bc <ee_printf+0x3a8>
    51b8:	0000106f          	j	61b8 <ee_printf+0x13a4>
    51bc:	40e507b3          	sub	a5,a0,a4
    51c0:	0037b793          	sltiu	a5,a5,3
    51c4:	7e079ae3          	bnez	a5,61b8 <ee_printf+0x13a4>
    51c8:	ffc67893          	and	a7,a2,-4
    51cc:	00058793          	mv	a5,a1
    51d0:	01158833          	add	a6,a1,a7
    51d4:	00050713          	mv	a4,a0
    51d8:	0007a583          	lw	a1,0(a5)
    51dc:	00478793          	add	a5,a5,4
    51e0:	00470713          	add	a4,a4,4
    51e4:	feb72e23          	sw	a1,-4(a4)
    51e8:	fef818e3          	bne	a6,a5,51d8 <ee_printf+0x3c4>
    51ec:	011507b3          	add	a5,a0,a7
    51f0:	02c88663          	beq	a7,a2,521c <ee_printf+0x408>
    51f4:	00084583          	lbu	a1,0(a6)
    51f8:	00188713          	add	a4,a7,1
    51fc:	00b78023          	sb	a1,0(a5)
    5200:	00c75e63          	bge	a4,a2,521c <ee_printf+0x408>
    5204:	00184703          	lbu	a4,1(a6)
    5208:	00288893          	add	a7,a7,2
    520c:	00e780a3          	sb	a4,1(a5)
    5210:	00c8d663          	bge	a7,a2,521c <ee_printf+0x408>
    5214:	00284703          	lbu	a4,2(a6)
    5218:	00e78123          	sb	a4,2(a5)
    521c:	00c50533          	add	a0,a0,a2
    5220:	fff68593          	add	a1,a3,-1
    5224:	001a8313          	add	t1,s5,1
    5228:	0cd65263          	bge	a2,a3,52ec <ee_printf+0x4d8>
    522c:	40c68833          	sub	a6,a3,a2
    5230:	40a00733          	neg	a4,a0
    5234:	fff80e13          	add	t3,a6,-1
    5238:	00500893          	li	a7,5
    523c:	00377793          	and	a5,a4,3
    5240:	00050e93          	mv	t4,a0
    5244:	07c8f263          	bgeu	a7,t3,52a8 <ee_printf+0x494>
    5248:	00050e13          	mv	t3,a0
    524c:	02078663          	beqz	a5,5278 <ee_printf+0x464>
    5250:	02000593          	li	a1,32
    5254:	00277713          	and	a4,a4,2
    5258:	00b50023          	sb	a1,0(a0)
    525c:	72070ce3          	beqz	a4,6194 <ee_printf+0x1380>
    5260:	00b500a3          	sb	a1,1(a0)
    5264:	00300713          	li	a4,3
    5268:	76e79ae3          	bne	a5,a4,61dc <ee_printf+0x13c8>
    526c:	00b50123          	sb	a1,2(a0)
    5270:	00350e13          	add	t3,a0,3
    5274:	ffc68593          	add	a1,a3,-4
    5278:	40f80f33          	sub	t5,a6,a5
    527c:	ffcf7893          	and	a7,t5,-4
    5280:	00f507b3          	add	a5,a0,a5
    5284:	20202737          	lui	a4,0x20202
    5288:	011786b3          	add	a3,a5,a7
    528c:	02070713          	add	a4,a4,32 # 20202020 <__rodata_end+0x201fa649>
    5290:	00e7a023          	sw	a4,0(a5)
    5294:	00478793          	add	a5,a5,4
    5298:	fed79ce3          	bne	a5,a3,5290 <ee_printf+0x47c>
    529c:	411585b3          	sub	a1,a1,a7
    52a0:	011e0533          	add	a0,t3,a7
    52a4:	051f0263          	beq	t5,a7,52e8 <ee_printf+0x4d4>
    52a8:	02000793          	li	a5,32
    52ac:	00f50023          	sb	a5,0(a0)
    52b0:	fff58713          	add	a4,a1,-1
    52b4:	02b65a63          	bge	a2,a1,52e8 <ee_printf+0x4d4>
    52b8:	00f500a3          	sb	a5,1(a0)
    52bc:	ffe58693          	add	a3,a1,-2
    52c0:	02e65463          	bge	a2,a4,52e8 <ee_printf+0x4d4>
    52c4:	00f50123          	sb	a5,2(a0)
    52c8:	ffd58713          	add	a4,a1,-3
    52cc:	00d65e63          	bge	a2,a3,52e8 <ee_printf+0x4d4>
    52d0:	00f501a3          	sb	a5,3(a0)
    52d4:	ffc58593          	add	a1,a1,-4
    52d8:	00e65863          	bge	a2,a4,52e8 <ee_printf+0x4d4>
    52dc:	00f50223          	sb	a5,4(a0)
    52e0:	00b65463          	bge	a2,a1,52e8 <ee_printf+0x4d4>
    52e4:	00f502a3          	sb	a5,5(a0)
    52e8:	01d80533          	add	a0,a6,t4
    52ec:	001ac783          	lbu	a5,1(s5)
    52f0:	ba0792e3          	bnez	a5,4e94 <ee_printf+0x80>
    52f4:	bb9ff06f          	j	4eac <ee_printf+0x98>
    52f8:	00060a93          	mv	s5,a2
    52fc:	fff00613          	li	a2,-1
    5300:	18c68863          	beq	a3,a2,5490 <ee_printf+0x67c>
    5304:	0004a583          	lw	a1,0(s1)
    5308:	01000613          	li	a2,16
    530c:	00448493          	add	s1,s1,4
    5310:	c5cff0ef          	jal	476c <number>
    5314:	001ac783          	lbu	a5,1(s5)
    5318:	001a8313          	add	t1,s5,1
    531c:	b6079ce3          	bnez	a5,4e94 <ee_printf+0x80>
    5320:	b8dff06f          	j	4eac <ee_printf+0x98>
    5324:	00060a93          	mv	s5,a2
    5328:	00800613          	li	a2,8
    532c:	e01ff06f          	j	512c <ee_printf+0x318>
    5330:	00060a93          	mv	s5,a2
    5334:	0107f793          	and	a5,a5,16
    5338:	00448813          	add	a6,s1,4
    533c:	001a8313          	add	t1,s5,1
    5340:	22078e63          	beqz	a5,557c <ee_printf+0x768>
    5344:	0004a783          	lw	a5,0(s1)
    5348:	fff68593          	add	a1,a3,-1
    534c:	00150613          	add	a2,a0,1
    5350:	00f50023          	sb	a5,0(a0)
    5354:	78b052e3          	blez	a1,62d8 <ee_printf+0x14c4>
    5358:	40c00733          	neg	a4,a2
    535c:	ffe68893          	add	a7,a3,-2
    5360:	00500f13          	li	t5,5
    5364:	00377793          	and	a5,a4,3
    5368:	00058e13          	mv	t3,a1
    536c:	00060e93          	mv	t4,a2
    5370:	071f5263          	bge	t5,a7,53d4 <ee_printf+0x5c0>
    5374:	02078663          	beqz	a5,53a0 <ee_printf+0x58c>
    5378:	02000613          	li	a2,32
    537c:	00277713          	and	a4,a4,2
    5380:	00c500a3          	sb	a2,1(a0)
    5384:	600702e3          	beqz	a4,6188 <ee_printf+0x1374>
    5388:	00c50123          	sb	a2,2(a0)
    538c:	00300713          	li	a4,3
    5390:	64e79ce3          	bne	a5,a4,61e8 <ee_printf+0x13d4>
    5394:	00c501a3          	sb	a2,3(a0)
    5398:	ffc68593          	add	a1,a3,-4
    539c:	00450613          	add	a2,a0,4
    53a0:	40fe08b3          	sub	a7,t3,a5
    53a4:	00178793          	add	a5,a5,1
    53a8:	00f507b3          	add	a5,a0,a5
    53ac:	20202737          	lui	a4,0x20202
    53b0:	ffc8f513          	and	a0,a7,-4
    53b4:	00f506b3          	add	a3,a0,a5
    53b8:	02070713          	add	a4,a4,32 # 20202020 <__rodata_end+0x201fa649>
    53bc:	00e7a023          	sw	a4,0(a5)
    53c0:	00478793          	add	a5,a5,4
    53c4:	fed79ce3          	bne	a5,a3,53bc <ee_printf+0x5a8>
    53c8:	40a585b3          	sub	a1,a1,a0
    53cc:	00a60633          	add	a2,a2,a0
    53d0:	04a88463          	beq	a7,a0,5418 <ee_printf+0x604>
    53d4:	02000793          	li	a5,32
    53d8:	00f60023          	sb	a5,0(a2)
    53dc:	00100713          	li	a4,1
    53e0:	02b75c63          	bge	a4,a1,5418 <ee_printf+0x604>
    53e4:	00f600a3          	sb	a5,1(a2)
    53e8:	00200713          	li	a4,2
    53ec:	02e58663          	beq	a1,a4,5418 <ee_printf+0x604>
    53f0:	00f60123          	sb	a5,2(a2)
    53f4:	00300713          	li	a4,3
    53f8:	02e58063          	beq	a1,a4,5418 <ee_printf+0x604>
    53fc:	00f601a3          	sb	a5,3(a2)
    5400:	00400713          	li	a4,4
    5404:	00e58a63          	beq	a1,a4,5418 <ee_printf+0x604>
    5408:	00f60223          	sb	a5,4(a2)
    540c:	00500713          	li	a4,5
    5410:	00e58463          	beq	a1,a4,5418 <ee_printf+0x604>
    5414:	00f602a3          	sb	a5,5(a2)
    5418:	01ce8533          	add	a0,t4,t3
    541c:	001ac783          	lbu	a5,1(s5)
    5420:	00080493          	mv	s1,a6
    5424:	a60798e3          	bnez	a5,4e94 <ee_printf+0x80>
    5428:	a85ff06f          	j	4eac <ee_printf+0x98>
    542c:	00000713          	li	a4,0
    5430:	00070313          	mv	t1,a4
    5434:	00231713          	sll	a4,t1,0x2
    5438:	00670733          	add	a4,a4,t1
    543c:	00180813          	add	a6,a6,1
    5440:	00171713          	sll	a4,a4,0x1
    5444:	00b70733          	add	a4,a4,a1
    5448:	00084583          	lbu	a1,0(a6)
    544c:	fd070313          	add	t1,a4,-48
    5450:	fd058613          	add	a2,a1,-48
    5454:	0ff67613          	zext.b	a2,a2
    5458:	fcc8fee3          	bgeu	a7,a2,5434 <ee_printf+0x620>
    545c:	fff34893          	not	a7,t1
    5460:	41f8d893          	sra	a7,a7,0x1f
    5464:	00080613          	mv	a2,a6
    5468:	01137733          	and	a4,t1,a7
    546c:	b65ff06f          	j	4fd0 <ee_printf+0x1bc>
    5470:	0004a703          	lw	a4,0(s1)
    5474:	00264583          	lbu	a1,2(a2)
    5478:	00448493          	add	s1,s1,4
    547c:	fff74813          	not	a6,a4
    5480:	41f85813          	sra	a6,a6,0x1f
    5484:	01077733          	and	a4,a4,a6
    5488:	00260613          	add	a2,a2,2
    548c:	b45ff06f          	j	4fd0 <ee_printf+0x1bc>
    5490:	0017e793          	or	a5,a5,1
    5494:	00800693          	li	a3,8
    5498:	e6dff06f          	j	5304 <ee_printf+0x4f0>
    549c:	000085b7          	lui	a1,0x8
    54a0:	0107f793          	and	a5,a5,16
    54a4:	9d058593          	add	a1,a1,-1584 # 79d0 <intpat+0xdd4>
    54a8:	ccdff06f          	j	5174 <ee_printf+0x360>
    54ac:	fff68713          	add	a4,a3,-1
    54b0:	40d65ae3          	bge	a2,a3,60c4 <ee_printf+0x12b0>
    54b4:	40c68333          	sub	t1,a3,a2
    54b8:	40a00833          	neg	a6,a0
    54bc:	fff30e93          	add	t4,t1,-1
    54c0:	00500893          	li	a7,5
    54c4:	00387793          	and	a5,a6,3
    54c8:	00050e13          	mv	t3,a0
    54cc:	07d8f263          	bgeu	a7,t4,5530 <ee_printf+0x71c>
    54d0:	00050893          	mv	a7,a0
    54d4:	02078663          	beqz	a5,5500 <ee_printf+0x6ec>
    54d8:	02000713          	li	a4,32
    54dc:	00287813          	and	a6,a6,2
    54e0:	00e50023          	sb	a4,0(a0)
    54e4:	5c0808e3          	beqz	a6,62b4 <ee_printf+0x14a0>
    54e8:	00e500a3          	sb	a4,1(a0)
    54ec:	00300813          	li	a6,3
    54f0:	5b079ce3          	bne	a5,a6,62a8 <ee_printf+0x1494>
    54f4:	00e50123          	sb	a4,2(a0)
    54f8:	00350893          	add	a7,a0,3
    54fc:	ffc68713          	add	a4,a3,-4
    5500:	40f30eb3          	sub	t4,t1,a5
    5504:	ffcef813          	and	a6,t4,-4
    5508:	00f507b3          	add	a5,a0,a5
    550c:	202026b7          	lui	a3,0x20202
    5510:	01078533          	add	a0,a5,a6
    5514:	02068693          	add	a3,a3,32 # 20202020 <__rodata_end+0x201fa649>
    5518:	00d7a023          	sw	a3,0(a5)
    551c:	00478793          	add	a5,a5,4
    5520:	fea79ce3          	bne	a5,a0,5518 <ee_printf+0x704>
    5524:	41070733          	sub	a4,a4,a6
    5528:	01088533          	add	a0,a7,a6
    552c:	050e8263          	beq	t4,a6,5570 <ee_printf+0x75c>
    5530:	02000793          	li	a5,32
    5534:	00f50023          	sb	a5,0(a0)
    5538:	fff70693          	add	a3,a4,-1
    553c:	02e65a63          	bge	a2,a4,5570 <ee_printf+0x75c>
    5540:	00f500a3          	sb	a5,1(a0)
    5544:	ffe70813          	add	a6,a4,-2
    5548:	02d65463          	bge	a2,a3,5570 <ee_printf+0x75c>
    554c:	00f50123          	sb	a5,2(a0)
    5550:	ffd70693          	add	a3,a4,-3
    5554:	01065e63          	bge	a2,a6,5570 <ee_printf+0x75c>
    5558:	00f501a3          	sb	a5,3(a0)
    555c:	ffc70713          	add	a4,a4,-4
    5560:	00d65863          	bge	a2,a3,5570 <ee_printf+0x75c>
    5564:	00f50223          	sb	a5,4(a0)
    5568:	00e65463          	bge	a2,a4,5570 <ee_printf+0x75c>
    556c:	00f502a3          	sb	a5,5(a0)
    5570:	01c30533          	add	a0,t1,t3
    5574:	fff60693          	add	a3,a2,-1
    5578:	c1dff06f          	j	5194 <ee_printf+0x380>
    557c:	00100793          	li	a5,1
    5580:	32d7d2e3          	bge	a5,a3,60a4 <ee_printf+0x1290>
    5584:	40a00633          	neg	a2,a0
    5588:	ffe68593          	add	a1,a3,-2
    558c:	00500893          	li	a7,5
    5590:	00367793          	and	a5,a2,3
    5594:	fff68713          	add	a4,a3,-1
    5598:	00050e93          	mv	t4,a0
    559c:	06b8d463          	bge	a7,a1,5604 <ee_printf+0x7f0>
    55a0:	00050e13          	mv	t3,a0
    55a4:	02078663          	beqz	a5,55d0 <ee_printf+0x7bc>
    55a8:	02000713          	li	a4,32
    55ac:	00267613          	and	a2,a2,2
    55b0:	00e50023          	sb	a4,0(a0)
    55b4:	50060ce3          	beqz	a2,62cc <ee_printf+0x14b8>
    55b8:	00e500a3          	sb	a4,1(a0)
    55bc:	00300613          	li	a2,3
    55c0:	50c790e3          	bne	a5,a2,62c0 <ee_printf+0x14ac>
    55c4:	00e50123          	sb	a4,2(a0)
    55c8:	00350e13          	add	t3,a0,3
    55cc:	ffc68713          	add	a4,a3,-4
    55d0:	40f688b3          	sub	a7,a3,a5
    55d4:	fff88893          	add	a7,a7,-1
    55d8:	00f507b3          	add	a5,a0,a5
    55dc:	ffc8f593          	and	a1,a7,-4
    55e0:	20202637          	lui	a2,0x20202
    55e4:	00f58533          	add	a0,a1,a5
    55e8:	02060613          	add	a2,a2,32 # 20202020 <__rodata_end+0x201fa649>
    55ec:	00c7a023          	sw	a2,0(a5)
    55f0:	00478793          	add	a5,a5,4
    55f4:	fef51ce3          	bne	a0,a5,55ec <ee_printf+0x7d8>
    55f8:	40b70733          	sub	a4,a4,a1
    55fc:	00be0533          	add	a0,t3,a1
    5600:	04b88463          	beq	a7,a1,5648 <ee_printf+0x834>
    5604:	02000793          	li	a5,32
    5608:	00f50023          	sb	a5,0(a0)
    560c:	00100613          	li	a2,1
    5610:	02e65c63          	bge	a2,a4,5648 <ee_printf+0x834>
    5614:	00f500a3          	sb	a5,1(a0)
    5618:	00200613          	li	a2,2
    561c:	02c70663          	beq	a4,a2,5648 <ee_printf+0x834>
    5620:	00f50123          	sb	a5,2(a0)
    5624:	00300613          	li	a2,3
    5628:	02c70063          	beq	a4,a2,5648 <ee_printf+0x834>
    562c:	00f501a3          	sb	a5,3(a0)
    5630:	00400613          	li	a2,4
    5634:	00c70a63          	beq	a4,a2,5648 <ee_printf+0x834>
    5638:	00f50223          	sb	a5,4(a0)
    563c:	00500613          	li	a2,5
    5640:	00c70463          	beq	a4,a2,5648 <ee_printf+0x834>
    5644:	00f502a3          	sb	a5,5(a0)
    5648:	0004a703          	lw	a4,0(s1)
    564c:	fffe8793          	add	a5,t4,-1
    5650:	00d787b3          	add	a5,a5,a3
    5654:	00e78023          	sb	a4,0(a5)
    5658:	00178513          	add	a0,a5,1
    565c:	dc1ff06f          	j	541c <ee_printf+0x608>
    5660:	06c00613          	li	a2,108
    5664:	0027e793          	or	a5,a5,2
    5668:	00448813          	add	a6,s1,4
    566c:	aec300e3          	beq	t1,a2,514c <ee_printf+0x338>
    5670:	0004a583          	lw	a1,0(s1)
    5674:	00a00613          	li	a2,10
    5678:	00080493          	mv	s1,a6
    567c:	ab9ff06f          	j	5134 <ee_printf+0x320>
    5680:	06c00713          	li	a4,108
    5684:	00e306e3          	beq	t1,a4,5e90 <ee_printf+0x107c>
    5688:	0004a803          	lw	a6,0(s1)
    568c:	00448493          	add	s1,s1,4
    5690:	00084603          	lbu	a2,0(a6)
    5694:	7c060263          	beqz	a2,5e58 <ee_printf+0x1044>
    5698:	06300713          	li	a4,99
    569c:	12c756e3          	bge	a4,a2,5fc8 <ee_printf+0x11b4>
    56a0:	51eb8e37          	lui	t3,0x51eb8
    56a4:	51fe0e13          	add	t3,t3,1311 # 51eb851f <__rodata_end+0x51eb0b48>
    56a8:	03c63e33          	mulhu	t3,a2,t3
    56ac:	06400e93          	li	t4,100
    56b0:	00008737          	lui	a4,0x8
    56b4:	98070713          	add	a4,a4,-1664 # 7980 <intpat+0xd84>
    56b8:	ccccd5b7          	lui	a1,0xccccd
    56bc:	ccd58593          	add	a1,a1,-819 # cccccccd <stack_top+0x4ccacccd>
    56c0:	00400313          	li	t1,4
    56c4:	00300893          	li	a7,3
    56c8:	00200f13          	li	t5,2
    56cc:	005e5e13          	srl	t3,t3,0x5
    56d0:	03de0eb3          	mul	t4,t3,t4
    56d4:	01c70e33          	add	t3,a4,t3
    56d8:	000e4e03          	lbu	t3,0(t3)
    56dc:	01c10c23          	sb	t3,24(sp)
    56e0:	41d60e33          	sub	t3,a2,t4
    56e4:	02be3633          	mulhu	a2,t3,a1
    56e8:	00365613          	srl	a2,a2,0x3
    56ec:	00261593          	sll	a1,a2,0x2
    56f0:	00c585b3          	add	a1,a1,a2
    56f4:	00c70633          	add	a2,a4,a2
    56f8:	00064e83          	lbu	t4,0(a2)
    56fc:	00159613          	sll	a2,a1,0x1
    5700:	40ce0633          	sub	a2,t3,a2
    5704:	01d10ca3          	sb	t4,25(sp)
    5708:	00c70633          	add	a2,a4,a2
    570c:	00064703          	lbu	a4,0(a2)
    5710:	002f0f33          	add	t5,t5,sp
    5714:	00ef0c23          	sb	a4,24(t5)
    5718:	12088713          	add	a4,a7,288
    571c:	01010593          	add	a1,sp,16
    5720:	00184603          	lbu	a2,1(a6)
    5724:	00b70e33          	add	t3,a4,a1
    5728:	02e00713          	li	a4,46
    572c:	eeee0423          	sb	a4,-280(t3)
    5730:	70060a63          	beqz	a2,5e44 <ee_printf+0x1030>
    5734:	06300713          	li	a4,99
    5738:	04c754e3          	bge	a4,a2,5f80 <ee_printf+0x116c>
    573c:	51eb85b7          	lui	a1,0x51eb8
    5740:	51f58593          	add	a1,a1,1311 # 51eb851f <__rodata_end+0x51eb0b48>
    5744:	02b635b3          	mulhu	a1,a2,a1
    5748:	06400e93          	li	t4,100
    574c:	00008737          	lui	a4,0x8
    5750:	98070713          	add	a4,a4,-1664 # 7980 <intpat+0xd84>
    5754:	00230f33          	add	t5,t1,sp
    5758:	00388313          	add	t1,a7,3
    575c:	ccccd8b7          	lui	a7,0xccccd
    5760:	ccd88893          	add	a7,a7,-819 # cccccccd <stack_top+0x4ccacccd>
    5764:	0055d593          	srl	a1,a1,0x5
    5768:	03d58eb3          	mul	t4,a1,t4
    576c:	00b705b3          	add	a1,a4,a1
    5770:	0005c583          	lbu	a1,0(a1)
    5774:	00bf0c23          	sb	a1,24(t5)
    5778:	41d605b3          	sub	a1,a2,t4
    577c:	0315b633          	mulhu	a2,a1,a7
    5780:	00365613          	srl	a2,a2,0x3
    5784:	00c70eb3          	add	t4,a4,a2
    5788:	000ece83          	lbu	t4,0(t4)
    578c:	00261893          	sll	a7,a2,0x2
    5790:	00c88633          	add	a2,a7,a2
    5794:	00161613          	sll	a2,a2,0x1
    5798:	40c58633          	sub	a2,a1,a2
    579c:	efde0523          	sb	t4,-278(t3)
    57a0:	00c70633          	add	a2,a4,a2
    57a4:	00064603          	lbu	a2,0(a2)
    57a8:	00230733          	add	a4,t1,sp
    57ac:	00130593          	add	a1,t1,1
    57b0:	00c70c23          	sb	a2,24(a4)
    57b4:	12058713          	add	a4,a1,288
    57b8:	01010893          	add	a7,sp,16
    57bc:	00284603          	lbu	a2,2(a6)
    57c0:	01170eb3          	add	t4,a4,a7
    57c4:	02e00713          	li	a4,46
    57c8:	eeee8423          	sb	a4,-280(t4)
    57cc:	00158893          	add	a7,a1,1
    57d0:	66060063          	beqz	a2,5e30 <ee_printf+0x101c>
    57d4:	06300713          	li	a4,99
    57d8:	76c75063          	bge	a4,a2,5f38 <ee_printf+0x1124>
    57dc:	51eb8337          	lui	t1,0x51eb8
    57e0:	51f30313          	add	t1,t1,1311 # 51eb851f <__rodata_end+0x51eb0b48>
    57e4:	02663333          	mulhu	t1,a2,t1
    57e8:	00288fb3          	add	t6,a7,sp
    57ec:	06400f13          	li	t5,100
    57f0:	00358893          	add	a7,a1,3
    57f4:	00008737          	lui	a4,0x8
    57f8:	98070713          	add	a4,a4,-1664 # 7980 <intpat+0xd84>
    57fc:	ccccde37          	lui	t3,0xccccd
    5800:	ccde0e13          	add	t3,t3,-819 # cccccccd <stack_top+0x4ccacccd>
    5804:	00535593          	srl	a1,t1,0x5
    5808:	03e58333          	mul	t1,a1,t5
    580c:	00b705b3          	add	a1,a4,a1
    5810:	0005c583          	lbu	a1,0(a1)
    5814:	00bf8c23          	sb	a1,24(t6)
    5818:	406605b3          	sub	a1,a2,t1
    581c:	03c5b633          	mulhu	a2,a1,t3
    5820:	00365613          	srl	a2,a2,0x3
    5824:	00c70e33          	add	t3,a4,a2
    5828:	000e4e03          	lbu	t3,0(t3)
    582c:	00261313          	sll	t1,a2,0x2
    5830:	00c30633          	add	a2,t1,a2
    5834:	00161613          	sll	a2,a2,0x1
    5838:	40c58633          	sub	a2,a1,a2
    583c:	efce8523          	sb	t3,-278(t4)
    5840:	00c70633          	add	a2,a4,a2
    5844:	00064603          	lbu	a2,0(a2)
    5848:	00288733          	add	a4,a7,sp
    584c:	00188593          	add	a1,a7,1
    5850:	00c70c23          	sb	a2,24(a4)
    5854:	12058713          	add	a4,a1,288
    5858:	00384603          	lbu	a2,3(a6)
    585c:	01010813          	add	a6,sp,16
    5860:	01070e33          	add	t3,a4,a6
    5864:	02e00713          	li	a4,46
    5868:	eeee0423          	sb	a4,-280(t3)
    586c:	00158893          	add	a7,a1,1
    5870:	5a060663          	beqz	a2,5e1c <ee_printf+0x1008>
    5874:	06300713          	li	a4,99
    5878:	66c75c63          	bge	a4,a2,5ef0 <ee_printf+0x10dc>
    587c:	51eb8837          	lui	a6,0x51eb8
    5880:	51f80813          	add	a6,a6,1311 # 51eb851f <__rodata_end+0x51eb0b48>
    5884:	03063833          	mulhu	a6,a2,a6
    5888:	00288f33          	add	t5,a7,sp
    588c:	06400e93          	li	t4,100
    5890:	00358893          	add	a7,a1,3
    5894:	00008737          	lui	a4,0x8
    5898:	98070713          	add	a4,a4,-1664 # 7980 <intpat+0xd84>
    589c:	ccccd337          	lui	t1,0xccccd
    58a0:	ccd30313          	add	t1,t1,-819 # cccccccd <stack_top+0x4ccacccd>
    58a4:	00585593          	srl	a1,a6,0x5
    58a8:	03d58833          	mul	a6,a1,t4
    58ac:	00b705b3          	add	a1,a4,a1
    58b0:	0005c583          	lbu	a1,0(a1)
    58b4:	00bf0c23          	sb	a1,24(t5)
    58b8:	410605b3          	sub	a1,a2,a6
    58bc:	0265b633          	mulhu	a2,a1,t1
    58c0:	00365613          	srl	a2,a2,0x3
    58c4:	00c70333          	add	t1,a4,a2
    58c8:	00034303          	lbu	t1,0(t1)
    58cc:	00261813          	sll	a6,a2,0x2
    58d0:	00c80633          	add	a2,a6,a2
    58d4:	00161613          	sll	a2,a2,0x1
    58d8:	40c58633          	sub	a2,a1,a2
    58dc:	ee6e0523          	sb	t1,-278(t3)
    58e0:	00c70633          	add	a2,a4,a2
    58e4:	00064603          	lbu	a2,0(a2)
    58e8:	00288733          	add	a4,a7,sp
    58ec:	00188593          	add	a1,a7,1
    58f0:	00c70c23          	sb	a2,24(a4)
    58f4:	0107f793          	and	a5,a5,16
    58f8:	0c079863          	bnez	a5,59c8 <ee_printf+0xbb4>
    58fc:	fff68713          	add	a4,a3,-1
    5900:	16d5d6e3          	bge	a1,a3,626c <ee_printf+0x1458>
    5904:	40b68333          	sub	t1,a3,a1
    5908:	40a00633          	neg	a2,a0
    590c:	fff30893          	add	a7,t1,-1
    5910:	00500813          	li	a6,5
    5914:	00367793          	and	a5,a2,3
    5918:	00050e93          	mv	t4,a0
    591c:	07187263          	bgeu	a6,a7,5980 <ee_printf+0xb6c>
    5920:	00050893          	mv	a7,a0
    5924:	02078663          	beqz	a5,5950 <ee_printf+0xb3c>
    5928:	02000713          	li	a4,32
    592c:	00267613          	and	a2,a2,2
    5930:	00e50023          	sb	a4,0(a0)
    5934:	10060ce3          	beqz	a2,624c <ee_printf+0x1438>
    5938:	00e500a3          	sb	a4,1(a0)
    593c:	00300613          	li	a2,3
    5940:	74c79c63          	bne	a5,a2,6098 <ee_printf+0x1284>
    5944:	00e50123          	sb	a4,2(a0)
    5948:	00350893          	add	a7,a0,3
    594c:	ffc68713          	add	a4,a3,-4
    5950:	40f30e33          	sub	t3,t1,a5
    5954:	ffce7813          	and	a6,t3,-4
    5958:	00f507b3          	add	a5,a0,a5
    595c:	202026b7          	lui	a3,0x20202
    5960:	00f80633          	add	a2,a6,a5
    5964:	02068693          	add	a3,a3,32 # 20202020 <__rodata_end+0x201fa649>
    5968:	00d7a023          	sw	a3,0(a5)
    596c:	00478793          	add	a5,a5,4
    5970:	fef61ce3          	bne	a2,a5,5968 <ee_printf+0xb54>
    5974:	41070733          	sub	a4,a4,a6
    5978:	01088533          	add	a0,a7,a6
    597c:	050e0263          	beq	t3,a6,59c0 <ee_printf+0xbac>
    5980:	02000793          	li	a5,32
    5984:	00f50023          	sb	a5,0(a0)
    5988:	fff70693          	add	a3,a4,-1
    598c:	02e5da63          	bge	a1,a4,59c0 <ee_printf+0xbac>
    5990:	00f500a3          	sb	a5,1(a0)
    5994:	ffe70613          	add	a2,a4,-2
    5998:	02d5d463          	bge	a1,a3,59c0 <ee_printf+0xbac>
    599c:	00f50123          	sb	a5,2(a0)
    59a0:	ffd70693          	add	a3,a4,-3
    59a4:	00c5de63          	bge	a1,a2,59c0 <ee_printf+0xbac>
    59a8:	00f501a3          	sb	a5,3(a0)
    59ac:	ffc70713          	add	a4,a4,-4
    59b0:	00d5d863          	bge	a1,a3,59c0 <ee_printf+0xbac>
    59b4:	00f50223          	sb	a5,4(a0)
    59b8:	00e5d463          	bge	a1,a4,59c0 <ee_printf+0xbac>
    59bc:	00f502a3          	sb	a5,5(a0)
    59c0:	006e8533          	add	a0,t4,t1
    59c4:	fff58693          	add	a3,a1,-1
    59c8:	00357793          	and	a5,a0,3
    59cc:	70079063          	bnez	a5,60cc <ee_printf+0x12b8>
    59d0:	01812603          	lw	a2,24(sp)
    59d4:	0025d793          	srl	a5,a1,0x2
    59d8:	00100713          	li	a4,1
    59dc:	00c52023          	sw	a2,0(a0)
    59e0:	4ce78863          	beq	a5,a4,5eb0 <ee_printf+0x109c>
    59e4:	01c12603          	lw	a2,28(sp)
    59e8:	00300713          	li	a4,3
    59ec:	00c52223          	sw	a2,4(a0)
    59f0:	00e79663          	bne	a5,a4,59fc <ee_printf+0xbe8>
    59f4:	02012783          	lw	a5,32(sp)
    59f8:	00f52423          	sw	a5,8(a0)
    59fc:	0035f793          	and	a5,a1,3
    5a00:	02078063          	beqz	a5,5a20 <ee_printf+0xc0c>
    5a04:	ffc5f793          	and	a5,a1,-4
    5a08:	00278733          	add	a4,a5,sp
    5a0c:	01874803          	lbu	a6,24(a4)
    5a10:	00f50633          	add	a2,a0,a5
    5a14:	00178713          	add	a4,a5,1
    5a18:	01060023          	sb	a6,0(a2)
    5a1c:	78b74863          	blt	a4,a1,61ac <ee_printf+0x1398>
    5a20:	00050e13          	mv	t3,a0
    5a24:	00b50533          	add	a0,a0,a1
    5a28:	00050613          	mv	a2,a0
    5a2c:	fff68813          	add	a6,a3,-1
    5a30:	f0d5d463          	bge	a1,a3,5138 <ee_printf+0x324>
    5a34:	40b688b3          	sub	a7,a3,a1
    5a38:	40a00733          	neg	a4,a0
    5a3c:	fff88e93          	add	t4,a7,-1
    5a40:	00500313          	li	t1,5
    5a44:	00377793          	and	a5,a4,3
    5a48:	07d37063          	bgeu	t1,t4,5aa8 <ee_printf+0xc94>
    5a4c:	02078663          	beqz	a5,5a78 <ee_printf+0xc64>
    5a50:	02000813          	li	a6,32
    5a54:	00277713          	and	a4,a4,2
    5a58:	01050023          	sb	a6,0(a0)
    5a5c:	5a070c63          	beqz	a4,6014 <ee_printf+0x1200>
    5a60:	010500a3          	sb	a6,1(a0)
    5a64:	00300713          	li	a4,3
    5a68:	72e79c63          	bne	a5,a4,61a0 <ee_printf+0x138c>
    5a6c:	01050123          	sb	a6,2(a0)
    5a70:	ffc68813          	add	a6,a3,-4
    5a74:	00350513          	add	a0,a0,3
    5a78:	40f888b3          	sub	a7,a7,a5
    5a7c:	ffc8f313          	and	t1,a7,-4
    5a80:	00c787b3          	add	a5,a5,a2
    5a84:	20202737          	lui	a4,0x20202
    5a88:	00678633          	add	a2,a5,t1
    5a8c:	02070713          	add	a4,a4,32 # 20202020 <__rodata_end+0x201fa649>
    5a90:	00e7a023          	sw	a4,0(a5)
    5a94:	00478793          	add	a5,a5,4
    5a98:	fec79ce3          	bne	a5,a2,5a90 <ee_printf+0xc7c>
    5a9c:	04688663          	beq	a7,t1,5ae8 <ee_printf+0xcd4>
    5aa0:	40680833          	sub	a6,a6,t1
    5aa4:	00650533          	add	a0,a0,t1
    5aa8:	02000793          	li	a5,32
    5aac:	00f50023          	sb	a5,0(a0)
    5ab0:	fff80713          	add	a4,a6,-1
    5ab4:	0305da63          	bge	a1,a6,5ae8 <ee_printf+0xcd4>
    5ab8:	00f500a3          	sb	a5,1(a0)
    5abc:	ffe80613          	add	a2,a6,-2
    5ac0:	02e5d463          	bge	a1,a4,5ae8 <ee_printf+0xcd4>
    5ac4:	00f50123          	sb	a5,2(a0)
    5ac8:	ffd80713          	add	a4,a6,-3
    5acc:	00c5de63          	bge	a1,a2,5ae8 <ee_printf+0xcd4>
    5ad0:	00f501a3          	sb	a5,3(a0)
    5ad4:	ffc80813          	add	a6,a6,-4
    5ad8:	00e5d863          	bge	a1,a4,5ae8 <ee_printf+0xcd4>
    5adc:	00f50223          	sb	a5,4(a0)
    5ae0:	0105d463          	bge	a1,a6,5ae8 <ee_printf+0xcd4>
    5ae4:	00f502a3          	sb	a5,5(a0)
    5ae8:	00de0533          	add	a0,t3,a3
    5aec:	e4cff06f          	j	5138 <ee_printf+0x324>
    5af0:	06c00713          	li	a4,108
    5af4:	0407e793          	or	a5,a5,64
    5af8:	b8e318e3          	bne	t1,a4,5688 <ee_printf+0x874>
    5afc:	15612823          	sw	s6,336(sp)
    5b00:	15912223          	sw	s9,324(sp)
    5b04:	15a12023          	sw	s10,320(sp)
    5b08:	00008737          	lui	a4,0x8
    5b0c:	0004a583          	lw	a1,0(s1)
    5b10:	9a870713          	add	a4,a4,-1624 # 79a8 <intpat+0xdac>
    5b14:	00448493          	add	s1,s1,4
    5b18:	0005c283          	lbu	t0,0(a1)
    5b1c:	0015cf03          	lbu	t5,1(a1)
    5b20:	0025ce03          	lbu	t3,2(a1)
    5b24:	0035c803          	lbu	a6,3(a1)
    5b28:	0045c303          	lbu	t1,4(a1)
    5b2c:	0055c883          	lbu	a7,5(a1)
    5b30:	0042db13          	srl	s6,t0,0x4
    5b34:	004f5a93          	srl	s5,t5,0x4
    5b38:	004e5393          	srl	t2,t3,0x4
    5b3c:	00485f93          	srl	t6,a6,0x4
    5b40:	00435e93          	srl	t4,t1,0x4
    5b44:	00f37593          	and	a1,t1,15
    5b48:	00f2f293          	and	t0,t0,15
    5b4c:	0048d313          	srl	t1,a7,0x4
    5b50:	00ff7f13          	and	t5,t5,15
    5b54:	00fe7e13          	and	t3,t3,15
    5b58:	00f87813          	and	a6,a6,15
    5b5c:	01670b33          	add	s6,a4,s6
    5b60:	005702b3          	add	t0,a4,t0
    5b64:	01570ab3          	add	s5,a4,s5
    5b68:	01e70f33          	add	t5,a4,t5
    5b6c:	01c70e33          	add	t3,a4,t3
    5b70:	01070833          	add	a6,a4,a6
    5b74:	00b705b3          	add	a1,a4,a1
    5b78:	007703b3          	add	t2,a4,t2
    5b7c:	01f70fb3          	add	t6,a4,t6
    5b80:	01d70eb3          	add	t4,a4,t4
    5b84:	00670333          	add	t1,a4,t1
    5b88:	000b4d03          	lbu	s10,0(s6)
    5b8c:	0002cc83          	lbu	s9,0(t0)
    5b90:	000acb03          	lbu	s6,0(s5)
    5b94:	000e4283          	lbu	t0,0(t3)
    5b98:	000f4a83          	lbu	s5,0(t5)
    5b9c:	0005ce03          	lbu	t3,0(a1)
    5ba0:	00084f03          	lbu	t5,0(a6)
    5ba4:	0003c383          	lbu	t2,0(t2)
    5ba8:	00034803          	lbu	a6,0(t1)
    5bac:	000fcf83          	lbu	t6,0(t6)
    5bb0:	000ece83          	lbu	t4,0(t4)
    5bb4:	03a00593          	li	a1,58
    5bb8:	00f8f893          	and	a7,a7,15
    5bbc:	01012223          	sw	a6,4(sp)
    5bc0:	01a10c23          	sb	s10,24(sp)
    5bc4:	01910ca3          	sb	s9,25(sp)
    5bc8:	01610da3          	sb	s6,27(sp)
    5bcc:	01510e23          	sb	s5,28(sp)
    5bd0:	00710f23          	sb	t2,30(sp)
    5bd4:	00510fa3          	sb	t0,31(sp)
    5bd8:	03f100a3          	sb	t6,33(sp)
    5bdc:	03e10123          	sb	t5,34(sp)
    5be0:	03d10223          	sb	t4,36(sp)
    5be4:	03c102a3          	sb	t3,37(sp)
    5be8:	01170733          	add	a4,a4,a7
    5bec:	00b10d23          	sb	a1,26(sp)
    5bf0:	00b10ea3          	sb	a1,29(sp)
    5bf4:	02b10023          	sb	a1,32(sp)
    5bf8:	02b101a3          	sb	a1,35(sp)
    5bfc:	02b10323          	sb	a1,38(sp)
    5c00:	00074703          	lbu	a4,0(a4)
    5c04:	0107f793          	and	a5,a5,16
    5c08:	030103a3          	sb	a6,39(sp)
    5c0c:	00e12423          	sw	a4,8(sp)
    5c10:	0e079063          	bnez	a5,5cf0 <ee_printf+0xedc>
    5c14:	01100793          	li	a5,17
    5c18:	fff68713          	add	a4,a3,-1
    5c1c:	64d7dc63          	bge	a5,a3,6274 <ee_printf+0x1460>
    5c20:	40a005b3          	neg	a1,a0
    5c24:	fee68813          	add	a6,a3,-18
    5c28:	00500893          	li	a7,5
    5c2c:	00a12623          	sw	a0,12(sp)
    5c30:	0035f793          	and	a5,a1,3
    5c34:	0708f463          	bgeu	a7,a6,5c9c <ee_printf+0xe88>
    5c38:	00050893          	mv	a7,a0
    5c3c:	02078663          	beqz	a5,5c68 <ee_printf+0xe54>
    5c40:	02000713          	li	a4,32
    5c44:	0025f593          	and	a1,a1,2
    5c48:	00e50023          	sb	a4,0(a0)
    5c4c:	60058a63          	beqz	a1,6260 <ee_printf+0x144c>
    5c50:	00e500a3          	sb	a4,1(a0)
    5c54:	00300593          	li	a1,3
    5c58:	64b79263          	bne	a5,a1,629c <ee_printf+0x1488>
    5c5c:	00e50123          	sb	a4,2(a0)
    5c60:	00350893          	add	a7,a0,3
    5c64:	ffc68713          	add	a4,a3,-4
    5c68:	40f68333          	sub	t1,a3,a5
    5c6c:	fef30313          	add	t1,t1,-17
    5c70:	00f507b3          	add	a5,a0,a5
    5c74:	202025b7          	lui	a1,0x20202
    5c78:	ffc37513          	and	a0,t1,-4
    5c7c:	00f50833          	add	a6,a0,a5
    5c80:	02058593          	add	a1,a1,32 # 20202020 <__rodata_end+0x201fa649>
    5c84:	00b7a023          	sw	a1,0(a5)
    5c88:	00478793          	add	a5,a5,4
    5c8c:	fef81ce3          	bne	a6,a5,5c84 <ee_printf+0xe70>
    5c90:	04a30863          	beq	t1,a0,5ce0 <ee_printf+0xecc>
    5c94:	40a70733          	sub	a4,a4,a0
    5c98:	00a88533          	add	a0,a7,a0
    5c9c:	02000793          	li	a5,32
    5ca0:	00f50023          	sb	a5,0(a0)
    5ca4:	01100593          	li	a1,17
    5ca8:	02e5dc63          	bge	a1,a4,5ce0 <ee_printf+0xecc>
    5cac:	00f500a3          	sb	a5,1(a0)
    5cb0:	01200593          	li	a1,18
    5cb4:	02b70663          	beq	a4,a1,5ce0 <ee_printf+0xecc>
    5cb8:	00f50123          	sb	a5,2(a0)
    5cbc:	01300593          	li	a1,19
    5cc0:	02b70063          	beq	a4,a1,5ce0 <ee_printf+0xecc>
    5cc4:	00f501a3          	sb	a5,3(a0)
    5cc8:	01400593          	li	a1,20
    5ccc:	00b70a63          	beq	a4,a1,5ce0 <ee_printf+0xecc>
    5cd0:	00f50223          	sb	a5,4(a0)
    5cd4:	01500593          	li	a1,21
    5cd8:	00b70463          	beq	a4,a1,5ce0 <ee_printf+0xecc>
    5cdc:	00f502a3          	sb	a5,5(a0)
    5ce0:	00c12783          	lw	a5,12(sp)
    5ce4:	fef78513          	add	a0,a5,-17
    5ce8:	00d50533          	add	a0,a0,a3
    5cec:	01000693          	li	a3,16
    5cf0:	00357793          	and	a5,a0,3
    5cf4:	50079063          	bnez	a5,61f4 <ee_printf+0x13e0>
    5cf8:	01812803          	lw	a6,24(sp)
    5cfc:	01c12583          	lw	a1,28(sp)
    5d00:	02012703          	lw	a4,32(sp)
    5d04:	02412783          	lw	a5,36(sp)
    5d08:	01052023          	sw	a6,0(a0)
    5d0c:	00b52223          	sw	a1,4(a0)
    5d10:	00e52423          	sw	a4,8(a0)
    5d14:	00f52623          	sw	a5,12(a0)
    5d18:	00812783          	lw	a5,8(sp)
    5d1c:	fff68813          	add	a6,a3,-1
    5d20:	00f50823          	sb	a5,16(a0)
    5d24:	01100793          	li	a5,17
    5d28:	00f50733          	add	a4,a0,a5
    5d2c:	52d7d663          	bge	a5,a3,6258 <ee_printf+0x1444>
    5d30:	40e005b3          	neg	a1,a4
    5d34:	fee68893          	add	a7,a3,-18
    5d38:	00500e93          	li	t4,5
    5d3c:	0035f793          	and	a5,a1,3
    5d40:	fef68313          	add	t1,a3,-17
    5d44:	00070e13          	mv	t3,a4
    5d48:	071ef263          	bgeu	t4,a7,5dac <ee_printf+0xf98>
    5d4c:	02078663          	beqz	a5,5d78 <ee_printf+0xf64>
    5d50:	02000713          	li	a4,32
    5d54:	0025f593          	and	a1,a1,2
    5d58:	00e508a3          	sb	a4,17(a0)
    5d5c:	4e058263          	beqz	a1,6240 <ee_printf+0x142c>
    5d60:	00e50923          	sb	a4,18(a0)
    5d64:	00300593          	li	a1,3
    5d68:	30b79663          	bne	a5,a1,6074 <ee_printf+0x1260>
    5d6c:	00e509a3          	sb	a4,19(a0)
    5d70:	ffc68813          	add	a6,a3,-4
    5d74:	01450713          	add	a4,a0,20
    5d78:	40f308b3          	sub	a7,t1,a5
    5d7c:	01178793          	add	a5,a5,17
    5d80:	00f507b3          	add	a5,a0,a5
    5d84:	202026b7          	lui	a3,0x20202
    5d88:	ffc8f513          	and	a0,a7,-4
    5d8c:	00a785b3          	add	a1,a5,a0
    5d90:	02068693          	add	a3,a3,32 # 20202020 <__rodata_end+0x201fa649>
    5d94:	00d7a023          	sw	a3,0(a5)
    5d98:	00478793          	add	a5,a5,4
    5d9c:	feb79ce3          	bne	a5,a1,5d94 <ee_printf+0xf80>
    5da0:	40a80833          	sub	a6,a6,a0
    5da4:	00a70733          	add	a4,a4,a0
    5da8:	04a88463          	beq	a7,a0,5df0 <ee_printf+0xfdc>
    5dac:	02000793          	li	a5,32
    5db0:	00f70023          	sb	a5,0(a4)
    5db4:	01100693          	li	a3,17
    5db8:	0306dc63          	bge	a3,a6,5df0 <ee_printf+0xfdc>
    5dbc:	00f700a3          	sb	a5,1(a4)
    5dc0:	01200693          	li	a3,18
    5dc4:	02d80663          	beq	a6,a3,5df0 <ee_printf+0xfdc>
    5dc8:	00f70123          	sb	a5,2(a4)
    5dcc:	01300693          	li	a3,19
    5dd0:	02d80063          	beq	a6,a3,5df0 <ee_printf+0xfdc>
    5dd4:	00f701a3          	sb	a5,3(a4)
    5dd8:	01400693          	li	a3,20
    5ddc:	00d80a63          	beq	a6,a3,5df0 <ee_printf+0xfdc>
    5de0:	00f70223          	sb	a5,4(a4)
    5de4:	01500693          	li	a3,21
    5de8:	00d80463          	beq	a6,a3,5df0 <ee_printf+0xfdc>
    5dec:	00f702a3          	sb	a5,5(a4)
    5df0:	006e0533          	add	a0,t3,t1
    5df4:	00264783          	lbu	a5,2(a2)
    5df8:	15012b03          	lw	s6,336(sp)
    5dfc:	14412c83          	lw	s9,324(sp)
    5e00:	14012d03          	lw	s10,320(sp)
    5e04:	00260313          	add	t1,a2,2
    5e08:	88079663          	bnez	a5,4e94 <ee_printf+0x80>
    5e0c:	8a0ff06f          	j	4eac <ee_printf+0x98>
    5e10:	0407e793          	or	a5,a5,64
    5e14:	00060a93          	mv	s5,a2
    5e18:	871ff06f          	j	5688 <ee_printf+0x874>
    5e1c:	00288733          	add	a4,a7,sp
    5e20:	03000613          	li	a2,48
    5e24:	00258593          	add	a1,a1,2
    5e28:	00c70c23          	sb	a2,24(a4)
    5e2c:	ac9ff06f          	j	58f4 <ee_printf+0xae0>
    5e30:	00288733          	add	a4,a7,sp
    5e34:	03000613          	li	a2,48
    5e38:	00258593          	add	a1,a1,2
    5e3c:	00c70c23          	sb	a2,24(a4)
    5e40:	a15ff06f          	j	5854 <ee_printf+0xa40>
    5e44:	00230733          	add	a4,t1,sp
    5e48:	03000613          	li	a2,48
    5e4c:	00288593          	add	a1,a7,2
    5e50:	00c70c23          	sb	a2,24(a4)
    5e54:	961ff06f          	j	57b4 <ee_printf+0x9a0>
    5e58:	03000713          	li	a4,48
    5e5c:	00e10c23          	sb	a4,24(sp)
    5e60:	00200313          	li	t1,2
    5e64:	00100893          	li	a7,1
    5e68:	8b1ff06f          	j	5718 <ee_printf+0x904>
    5e6c:	16c12083          	lw	ra,364(sp)
    5e70:	16412483          	lw	s1,356(sp)
    5e74:	15812a03          	lw	s4,344(sp)
    5e78:	00000513          	li	a0,0
    5e7c:	19010113          	add	sp,sp,400
    5e80:	00008067          	ret
    5e84:	03010a13          	add	s4,sp,48
    5e88:	000a0513          	mv	a0,s4
    5e8c:	83cff06f          	j	4ec8 <ee_printf+0xb4>
    5e90:	15612823          	sw	s6,336(sp)
    5e94:	15912223          	sw	s9,324(sp)
    5e98:	15a12023          	sw	s10,320(sp)
    5e9c:	00008737          	lui	a4,0x8
    5ea0:	0004a583          	lw	a1,0(s1)
    5ea4:	98070713          	add	a4,a4,-1664 # 7980 <intpat+0xd84>
    5ea8:	00448493          	add	s1,s1,4
    5eac:	c6dff06f          	j	5b18 <ee_printf+0xd04>
    5eb0:	01c14783          	lbu	a5,28(sp)
    5eb4:	00450613          	add	a2,a0,4
    5eb8:	00550813          	add	a6,a0,5
    5ebc:	00f50223          	sb	a5,4(a0)
    5ec0:	00500713          	li	a4,5
    5ec4:	00400793          	li	a5,4
    5ec8:	01010893          	add	a7,sp,16
    5ecc:	01170733          	add	a4,a4,a7
    5ed0:	00874703          	lbu	a4,8(a4)
    5ed4:	00278793          	add	a5,a5,2
    5ed8:	00e80023          	sb	a4,0(a6)
    5edc:	b4b7d2e3          	bge	a5,a1,5a20 <ee_printf+0xc0c>
    5ee0:	011787b3          	add	a5,a5,a7
    5ee4:	0087c783          	lbu	a5,8(a5)
    5ee8:	00f60123          	sb	a5,2(a2)
    5eec:	b35ff06f          	j	5a20 <ee_printf+0xc0c>
    5ef0:	00900713          	li	a4,9
    5ef4:	16c75663          	bge	a4,a2,6060 <ee_printf+0x124c>
    5ef8:	ccccd837          	lui	a6,0xccccd
    5efc:	ccd80813          	add	a6,a6,-819 # cccccccd <stack_top+0x4ccacccd>
    5f00:	03063833          	mulhu	a6,a2,a6
    5f04:	00008737          	lui	a4,0x8
    5f08:	00288333          	add	t1,a7,sp
    5f0c:	98070713          	add	a4,a4,-1664 # 7980 <intpat+0xd84>
    5f10:	00258893          	add	a7,a1,2
    5f14:	00385593          	srl	a1,a6,0x3
    5f18:	00b70833          	add	a6,a4,a1
    5f1c:	00084e03          	lbu	t3,0(a6)
    5f20:	00259813          	sll	a6,a1,0x2
    5f24:	00b805b3          	add	a1,a6,a1
    5f28:	00159593          	sll	a1,a1,0x1
    5f2c:	01c30c23          	sb	t3,24(t1)
    5f30:	40b60633          	sub	a2,a2,a1
    5f34:	9adff06f          	j	58e0 <ee_printf+0xacc>
    5f38:	00900713          	li	a4,9
    5f3c:	10c75c63          	bge	a4,a2,6054 <ee_printf+0x1240>
    5f40:	ccccd337          	lui	t1,0xccccd
    5f44:	ccd30313          	add	t1,t1,-819 # cccccccd <stack_top+0x4ccacccd>
    5f48:	02663333          	mulhu	t1,a2,t1
    5f4c:	00008737          	lui	a4,0x8
    5f50:	00288e33          	add	t3,a7,sp
    5f54:	98070713          	add	a4,a4,-1664 # 7980 <intpat+0xd84>
    5f58:	00258893          	add	a7,a1,2
    5f5c:	00335593          	srl	a1,t1,0x3
    5f60:	00b70333          	add	t1,a4,a1
    5f64:	00034e83          	lbu	t4,0(t1)
    5f68:	00259313          	sll	t1,a1,0x2
    5f6c:	00b305b3          	add	a1,t1,a1
    5f70:	00159593          	sll	a1,a1,0x1
    5f74:	01de0c23          	sb	t4,24(t3)
    5f78:	40b60633          	sub	a2,a2,a1
    5f7c:	8c5ff06f          	j	5840 <ee_printf+0xa2c>
    5f80:	00900713          	li	a4,9
    5f84:	0cc75263          	bge	a4,a2,6048 <ee_printf+0x1234>
    5f88:	ccccd5b7          	lui	a1,0xccccd
    5f8c:	ccd58593          	add	a1,a1,-819 # cccccccd <stack_top+0x4ccacccd>
    5f90:	02b635b3          	mulhu	a1,a2,a1
    5f94:	00008737          	lui	a4,0x8
    5f98:	98070713          	add	a4,a4,-1664 # 7980 <intpat+0xd84>
    5f9c:	00230e33          	add	t3,t1,sp
    5fa0:	00288313          	add	t1,a7,2
    5fa4:	0035d593          	srl	a1,a1,0x3
    5fa8:	00b708b3          	add	a7,a4,a1
    5fac:	0008ce83          	lbu	t4,0(a7)
    5fb0:	00259893          	sll	a7,a1,0x2
    5fb4:	00b885b3          	add	a1,a7,a1
    5fb8:	00159593          	sll	a1,a1,0x1
    5fbc:	01de0c23          	sb	t4,24(t3)
    5fc0:	40b60633          	sub	a2,a2,a1
    5fc4:	fdcff06f          	j	57a0 <ee_printf+0x98c>
    5fc8:	00900713          	li	a4,9
    5fcc:	06c75263          	bge	a4,a2,6030 <ee_printf+0x121c>
    5fd0:	ccccd5b7          	lui	a1,0xccccd
    5fd4:	ccd58593          	add	a1,a1,-819 # cccccccd <stack_top+0x4ccacccd>
    5fd8:	02b635b3          	mulhu	a1,a2,a1
    5fdc:	00008737          	lui	a4,0x8
    5fe0:	98070713          	add	a4,a4,-1664 # 7980 <intpat+0xd84>
    5fe4:	00300313          	li	t1,3
    5fe8:	00200893          	li	a7,2
    5fec:	00100f13          	li	t5,1
    5ff0:	0035d593          	srl	a1,a1,0x3
    5ff4:	00259e13          	sll	t3,a1,0x2
    5ff8:	00be0e33          	add	t3,t3,a1
    5ffc:	00b705b3          	add	a1,a4,a1
    6000:	0005ce83          	lbu	t4,0(a1)
    6004:	001e1593          	sll	a1,t3,0x1
    6008:	40b60633          	sub	a2,a2,a1
    600c:	01d10c23          	sb	t4,24(sp)
    6010:	ef8ff06f          	j	5708 <ee_printf+0x8f4>
    6014:	00150513          	add	a0,a0,1
    6018:	ffe68813          	add	a6,a3,-2
    601c:	a5dff06f          	j	5a78 <ee_printf+0xc64>
    6020:	0027e793          	or	a5,a5,2
    6024:	00060a93          	mv	s5,a2
    6028:	00448813          	add	a6,s1,4
    602c:	e44ff06f          	j	5670 <ee_printf+0x85c>
    6030:	00008737          	lui	a4,0x8
    6034:	98070713          	add	a4,a4,-1664 # 7980 <intpat+0xd84>
    6038:	00200313          	li	t1,2
    603c:	00100893          	li	a7,1
    6040:	00000f13          	li	t5,0
    6044:	ec4ff06f          	j	5708 <ee_printf+0x8f4>
    6048:	00008737          	lui	a4,0x8
    604c:	98070713          	add	a4,a4,-1664 # 7980 <intpat+0xd84>
    6050:	f50ff06f          	j	57a0 <ee_printf+0x98c>
    6054:	00008737          	lui	a4,0x8
    6058:	98070713          	add	a4,a4,-1664 # 7980 <intpat+0xd84>
    605c:	fe4ff06f          	j	5840 <ee_printf+0xa2c>
    6060:	00008737          	lui	a4,0x8
    6064:	98070713          	add	a4,a4,-1664 # 7980 <intpat+0xd84>
    6068:	879ff06f          	j	58e0 <ee_printf+0xacc>
    606c:	00060a93          	mv	s5,a2
    6070:	e18ff06f          	j	5688 <ee_printf+0x874>
    6074:	ffd68813          	add	a6,a3,-3
    6078:	01350713          	add	a4,a0,19
    607c:	cfdff06f          	j	5d78 <ee_printf+0xf64>
    6080:	00060a93          	mv	s5,a2
    6084:	8a4ff06f          	j	5128 <ee_printf+0x314>
    6088:	00060a93          	mv	s5,a2
    608c:	0407e793          	or	a5,a5,64
    6090:	01000613          	li	a2,16
    6094:	898ff06f          	j	512c <ee_printf+0x318>
    6098:	ffd68713          	add	a4,a3,-3
    609c:	00250893          	add	a7,a0,2
    60a0:	8b1ff06f          	j	5950 <ee_printf+0xb3c>
    60a4:	0004a783          	lw	a5,0(s1)
    60a8:	00150513          	add	a0,a0,1
    60ac:	00080493          	mv	s1,a6
    60b0:	fef50fa3          	sb	a5,-1(a0)
    60b4:	001ac783          	lbu	a5,1(s5)
    60b8:	00078463          	beqz	a5,60c0 <ee_printf+0x12ac>
    60bc:	dd9fe06f          	j	4e94 <ee_printf+0x80>
    60c0:	dedfe06f          	j	4eac <ee_printf+0x98>
    60c4:	00070693          	mv	a3,a4
    60c8:	8ccff06f          	j	5194 <ee_printf+0x380>
    60cc:	01814603          	lbu	a2,24(sp)
    60d0:	01914703          	lbu	a4,25(sp)
    60d4:	01a14783          	lbu	a5,26(sp)
    60d8:	01b14803          	lbu	a6,27(sp)
    60dc:	00c50023          	sb	a2,0(a0)
    60e0:	00e500a3          	sb	a4,1(a0)
    60e4:	01c14603          	lbu	a2,28(sp)
    60e8:	01d14703          	lbu	a4,29(sp)
    60ec:	00f50123          	sb	a5,2(a0)
    60f0:	01e14783          	lbu	a5,30(sp)
    60f4:	010501a3          	sb	a6,3(a0)
    60f8:	00c50223          	sb	a2,4(a0)
    60fc:	00f50323          	sb	a5,6(a0)
    6100:	00e502a3          	sb	a4,5(a0)
    6104:	00700793          	li	a5,7
    6108:	90f58ce3          	beq	a1,a5,5a20 <ee_printf+0xc0c>
    610c:	01f14703          	lbu	a4,31(sp)
    6110:	00800793          	li	a5,8
    6114:	00e503a3          	sb	a4,7(a0)
    6118:	90f584e3          	beq	a1,a5,5a20 <ee_printf+0xc0c>
    611c:	02014703          	lbu	a4,32(sp)
    6120:	00900793          	li	a5,9
    6124:	00e50423          	sb	a4,8(a0)
    6128:	8ef58ce3          	beq	a1,a5,5a20 <ee_printf+0xc0c>
    612c:	02114703          	lbu	a4,33(sp)
    6130:	00a00793          	li	a5,10
    6134:	00e504a3          	sb	a4,9(a0)
    6138:	8ef584e3          	beq	a1,a5,5a20 <ee_printf+0xc0c>
    613c:	02214703          	lbu	a4,34(sp)
    6140:	00b00793          	li	a5,11
    6144:	00e50523          	sb	a4,10(a0)
    6148:	8cf58ce3          	beq	a1,a5,5a20 <ee_printf+0xc0c>
    614c:	02314703          	lbu	a4,35(sp)
    6150:	00c00793          	li	a5,12
    6154:	00e505a3          	sb	a4,11(a0)
    6158:	8cf584e3          	beq	a1,a5,5a20 <ee_printf+0xc0c>
    615c:	02414703          	lbu	a4,36(sp)
    6160:	00d00793          	li	a5,13
    6164:	00e50623          	sb	a4,12(a0)
    6168:	8af58ce3          	beq	a1,a5,5a20 <ee_printf+0xc0c>
    616c:	02514703          	lbu	a4,37(sp)
    6170:	00f00793          	li	a5,15
    6174:	00e506a3          	sb	a4,13(a0)
    6178:	8af594e3          	bne	a1,a5,5a20 <ee_printf+0xc0c>
    617c:	02614783          	lbu	a5,38(sp)
    6180:	00f50723          	sb	a5,14(a0)
    6184:	89dff06f          	j	5a20 <ee_printf+0xc0c>
    6188:	00088593          	mv	a1,a7
    618c:	00250613          	add	a2,a0,2
    6190:	a10ff06f          	j	53a0 <ee_printf+0x58c>
    6194:	ffe68593          	add	a1,a3,-2
    6198:	00150e13          	add	t3,a0,1
    619c:	8dcff06f          	j	5278 <ee_printf+0x464>
    61a0:	00250513          	add	a0,a0,2
    61a4:	ffd68813          	add	a6,a3,-3
    61a8:	8d1ff06f          	j	5a78 <ee_printf+0xc64>
    61ac:	00160813          	add	a6,a2,1
    61b0:	d19ff06f          	j	5ec8 <ee_printf+0x10b4>
    61b4:	00158713          	add	a4,a1,1
    61b8:	00c587b3          	add	a5,a1,a2
    61bc:	00050813          	mv	a6,a0
    61c0:	0080006f          	j	61c8 <ee_printf+0x13b4>
    61c4:	00170713          	add	a4,a4,1
    61c8:	fff74583          	lbu	a1,-1(a4)
    61cc:	00180813          	add	a6,a6,1
    61d0:	feb80fa3          	sb	a1,-1(a6)
    61d4:	fef718e3          	bne	a4,a5,61c4 <ee_printf+0x13b0>
    61d8:	844ff06f          	j	521c <ee_printf+0x408>
    61dc:	ffd68593          	add	a1,a3,-3
    61e0:	00250e13          	add	t3,a0,2
    61e4:	894ff06f          	j	5278 <ee_printf+0x464>
    61e8:	ffd68593          	add	a1,a3,-3
    61ec:	00e50633          	add	a2,a0,a4
    61f0:	9b0ff06f          	j	53a0 <ee_printf+0x58c>
    61f4:	00412703          	lw	a4,4(sp)
    61f8:	03a00793          	li	a5,58
    61fc:	01a50023          	sb	s10,0(a0)
    6200:	019500a3          	sb	s9,1(a0)
    6204:	016501a3          	sb	s6,3(a0)
    6208:	01550223          	sb	s5,4(a0)
    620c:	00750323          	sb	t2,6(a0)
    6210:	005503a3          	sb	t0,7(a0)
    6214:	01f504a3          	sb	t6,9(a0)
    6218:	01e50523          	sb	t5,10(a0)
    621c:	01d50623          	sb	t4,12(a0)
    6220:	01c506a3          	sb	t3,13(a0)
    6224:	00e507a3          	sb	a4,15(a0)
    6228:	00f50123          	sb	a5,2(a0)
    622c:	00f502a3          	sb	a5,5(a0)
    6230:	00f50423          	sb	a5,8(a0)
    6234:	00f505a3          	sb	a5,11(a0)
    6238:	00f50723          	sb	a5,14(a0)
    623c:	addff06f          	j	5d18 <ee_printf+0xf04>
    6240:	ffe68813          	add	a6,a3,-2
    6244:	01250713          	add	a4,a0,18
    6248:	b31ff06f          	j	5d78 <ee_printf+0xf64>
    624c:	ffe68713          	add	a4,a3,-2
    6250:	00150893          	add	a7,a0,1
    6254:	efcff06f          	j	5950 <ee_printf+0xb3c>
    6258:	00070513          	mv	a0,a4
    625c:	b99ff06f          	j	5df4 <ee_printf+0xfe0>
    6260:	00150893          	add	a7,a0,1
    6264:	ffe68713          	add	a4,a3,-2
    6268:	a01ff06f          	j	5c68 <ee_printf+0xe54>
    626c:	00070693          	mv	a3,a4
    6270:	f58ff06f          	j	59c8 <ee_printf+0xbb4>
    6274:	00070693          	mv	a3,a4
    6278:	a79ff06f          	j	5cf0 <ee_printf+0xedc>
    627c:	00000613          	li	a2,0
    6280:	00078463          	beqz	a5,6288 <ee_printf+0x1474>
    6284:	f9dfe06f          	j	5220 <ee_printf+0x40c>
    6288:	fff68713          	add	a4,a3,-1
    628c:	001a8313          	add	t1,s5,1
    6290:	a2d04263          	bgtz	a3,54b4 <ee_printf+0x6a0>
    6294:	001ac783          	lbu	a5,1(s5)
    6298:	858ff06f          	j	52f0 <ee_printf+0x4dc>
    629c:	00250893          	add	a7,a0,2
    62a0:	ffd68713          	add	a4,a3,-3
    62a4:	9c5ff06f          	j	5c68 <ee_printf+0xe54>
    62a8:	ffd68713          	add	a4,a3,-3
    62ac:	00250893          	add	a7,a0,2
    62b0:	a50ff06f          	j	5500 <ee_printf+0x6ec>
    62b4:	ffe68713          	add	a4,a3,-2
    62b8:	00150893          	add	a7,a0,1
    62bc:	a44ff06f          	j	5500 <ee_printf+0x6ec>
    62c0:	00250e13          	add	t3,a0,2
    62c4:	ffd68713          	add	a4,a3,-3
    62c8:	b08ff06f          	j	55d0 <ee_printf+0x7bc>
    62cc:	00058713          	mv	a4,a1
    62d0:	00150e13          	add	t3,a0,1
    62d4:	afcff06f          	j	55d0 <ee_printf+0x7bc>
    62d8:	00060513          	mv	a0,a2
    62dc:	940ff06f          	j	541c <ee_printf+0x608>

Disassembly of section .text.startup:

000062e0 <main>:
    62e0:	81010113          	add	sp,sp,-2032
    62e4:	7e112623          	sw	ra,2028(sp)
    62e8:	7e812423          	sw	s0,2024(sp)
    62ec:	7e912223          	sw	s1,2020(sp)
    62f0:	7f212023          	sw	s2,2016(sp)
    62f4:	7d312e23          	sw	s3,2012(sp)
    62f8:	7d412c23          	sw	s4,2008(sp)
    62fc:	7d512a23          	sw	s5,2004(sp)
    6300:	7d612823          	sw	s6,2000(sp)
    6304:	7d712623          	sw	s7,1996(sp)
    6308:	7d812423          	sw	s8,1992(sp)
    630c:	7d912223          	sw	s9,1988(sp)
    6310:	7da12023          	sw	s10,1984(sp)
    6314:	7bb12e23          	sw	s11,1980(sp)
    6318:	f8010113          	add	sp,sp,-128
    631c:	01810613          	add	a2,sp,24
    6320:	01410593          	add	a1,sp,20
    6324:	05e10513          	add	a0,sp,94
    6328:	00012a23          	sw	zero,20(sp)
    632c:	c2cfe0ef          	jal	4758 <portable_init>
    6330:	00100513          	li	a0,1
    6334:	885fd0ef          	jal	3bb8 <get_seed_32>
    6338:	00050793          	mv	a5,a0
    633c:	00200513          	li	a0,2
    6340:	00f11e23          	sh	a5,28(sp)
    6344:	875fd0ef          	jal	3bb8 <get_seed_32>
    6348:	00050793          	mv	a5,a0
    634c:	00300513          	li	a0,3
    6350:	00f11f23          	sh	a5,30(sp)
    6354:	865fd0ef          	jal	3bb8 <get_seed_32>
    6358:	00050793          	mv	a5,a0
    635c:	00400513          	li	a0,4
    6360:	02f11023          	sh	a5,32(sp)
    6364:	855fd0ef          	jal	3bb8 <get_seed_32>
    6368:	00050793          	mv	a5,a0
    636c:	00500513          	li	a0,5
    6370:	02f12c23          	sw	a5,56(sp)
    6374:	845fd0ef          	jal	3bb8 <get_seed_32>
    6378:	00051463          	bnez	a0,6380 <main+0xa0>
    637c:	00700513          	li	a0,7
    6380:	01c12703          	lw	a4,28(sp)
    6384:	02a12e23          	sw	a0,60(sp)
    6388:	83010793          	add	a5,sp,-2000
    638c:	22071463          	bnez	a4,65b4 <main+0x2d4>
    6390:	7f079703          	lh	a4,2032(a5)
    6394:	2a070463          	beqz	a4,663c <main+0x35c>
    6398:	06010613          	add	a2,sp,96
    639c:	00157793          	and	a5,a0,1
    63a0:	00257713          	and	a4,a0,2
    63a4:	04011e23          	sh	zero,92(sp)
    63a8:	02c12223          	sw	a2,36(sp)
    63ac:	00078693          	mv	a3,a5
    63b0:	00457513          	and	a0,a0,4
    63b4:	22071463          	bnez	a4,65dc <main+0x2fc>
    63b8:	26050863          	beqz	a0,6628 <main+0x348>
    63bc:	00178713          	add	a4,a5,1
    63c0:	7d000593          	li	a1,2000
    63c4:	02e5d5b3          	divu	a1,a1,a4
    63c8:	02b12a23          	sw	a1,52(sp)
    63cc:	6a079c63          	bnez	a5,6a84 <main+0x7a4>
    63d0:	02b787b3          	mul	a5,a5,a1
    63d4:	00f60633          	add	a2,a2,a5
    63d8:	02c12823          	sw	a2,48(sp)
    63dc:	03c12783          	lw	a5,60(sp)
    63e0:	0017f693          	and	a3,a5,1
    63e4:	00068e63          	beqz	a3,6400 <main+0x120>
    63e8:	01c11603          	lh	a2,28(sp)
    63ec:	02812583          	lw	a1,40(sp)
    63f0:	03412503          	lw	a0,52(sp)
    63f4:	f9dfb0ef          	jal	2390 <core_list_init>
    63f8:	03c12783          	lw	a5,60(sp)
    63fc:	04a12023          	sw	a0,64(sp)
    6400:	0027f713          	and	a4,a5,2
    6404:	24071263          	bnez	a4,6648 <main+0x368>
    6408:	0047f793          	and	a5,a5,4
    640c:	00078a63          	beqz	a5,6420 <main+0x140>
    6410:	01c11583          	lh	a1,28(sp)
    6414:	03012603          	lw	a2,48(sp)
    6418:	03412503          	lw	a0,52(sp)
    641c:	f9dfc0ef          	jal	33b8 <core_init_state>
    6420:	03812783          	lw	a5,56(sp)
    6424:	0e079463          	bnez	a5,650c <main+0x22c>
    6428:	00100993          	li	s3,1
    642c:	01c10493          	add	s1,sp,28
    6430:	03312c23          	sw	s3,56(sp)
    6434:	03812703          	lw	a4,56(sp)
    6438:	00271793          	sll	a5,a4,0x2
    643c:	00e787b3          	add	a5,a5,a4
    6440:	00179793          	sll	a5,a5,0x1
    6444:	02f12c23          	sw	a5,56(sp)
    6448:	ad8fe0ef          	jal	4720 <start_time>
    644c:	03812903          	lw	s2,56(sp)
    6450:	04012a23          	sw	zero,84(sp)
    6454:	04012c23          	sw	zero,88(sp)
    6458:	08090663          	beqz	s2,64e4 <main+0x204>
    645c:	00100593          	li	a1,1
    6460:	00048513          	mv	a0,s1
    6464:	949fb0ef          	jal	1dac <core_bench_list>
    6468:	05415583          	lhu	a1,84(sp)
    646c:	00100413          	li	s0,1
    6470:	8d5fd0ef          	jal	3d44 <crcu16>
    6474:	00050793          	mv	a5,a0
    6478:	fff00593          	li	a1,-1
    647c:	00048513          	mv	a0,s1
    6480:	04f11a23          	sh	a5,84(sp)
    6484:	929fb0ef          	jal	1dac <core_bench_list>
    6488:	05415583          	lhu	a1,84(sp)
    648c:	8b9fd0ef          	jal	3d44 <crcu16>
    6490:	01051793          	sll	a5,a0,0x10
    6494:	0107d793          	srl	a5,a5,0x10
    6498:	01051513          	sll	a0,a0,0x10
    649c:	00a7e7b3          	or	a5,a5,a0
    64a0:	04f12a23          	sw	a5,84(sp)
    64a4:	05390063          	beq	s2,s3,64e4 <main+0x204>
    64a8:	00100593          	li	a1,1
    64ac:	00048513          	mv	a0,s1
    64b0:	8fdfb0ef          	jal	1dac <core_bench_list>
    64b4:	05415583          	lhu	a1,84(sp)
    64b8:	00140413          	add	s0,s0,1
    64bc:	889fd0ef          	jal	3d44 <crcu16>
    64c0:	00050793          	mv	a5,a0
    64c4:	fff00593          	li	a1,-1
    64c8:	00048513          	mv	a0,s1
    64cc:	04f11a23          	sh	a5,84(sp)
    64d0:	8ddfb0ef          	jal	1dac <core_bench_list>
    64d4:	05415583          	lhu	a1,84(sp)
    64d8:	86dfd0ef          	jal	3d44 <crcu16>
    64dc:	04a11a23          	sh	a0,84(sp)
    64e0:	fc8914e3          	bne	s2,s0,64a8 <main+0x1c8>
    64e4:	a48fe0ef          	jal	472c <stop_time>
    64e8:	a54fe0ef          	jal	473c <get_time>
    64ec:	a68fe0ef          	jal	4754 <time_in_secs>
    64f0:	f40502e3          	beqz	a0,6434 <main+0x154>
    64f4:	00a00793          	li	a5,10
    64f8:	02a7d7b3          	divu	a5,a5,a0
    64fc:	03812703          	lw	a4,56(sp)
    6500:	00178793          	add	a5,a5,1
    6504:	02e787b3          	mul	a5,a5,a4
    6508:	02f12c23          	sw	a5,56(sp)
    650c:	a14fe0ef          	jal	4720 <start_time>
    6510:	01c10513          	add	a0,sp,28
    6514:	c84fc0ef          	jal	2998 <iterate>
    6518:	a14fe0ef          	jal	472c <stop_time>
    651c:	a20fe0ef          	jal	473c <get_time>
    6520:	00050493          	mv	s1,a0
    6524:	01c11503          	lh	a0,28(sp)
    6528:	00000593          	li	a1,0
    652c:	f0dfd0ef          	jal	4438 <crc16>
    6530:	00050593          	mv	a1,a0
    6534:	01e11503          	lh	a0,30(sp)
    6538:	f01fd0ef          	jal	4438 <crc16>
    653c:	00050593          	mv	a1,a0
    6540:	02011503          	lh	a0,32(sp)
    6544:	ef5fd0ef          	jal	4438 <crc16>
    6548:	00050593          	mv	a1,a0
    654c:	03411503          	lh	a0,52(sp)
    6550:	ee9fd0ef          	jal	4438 <crc16>
    6554:	000087b7          	lui	a5,0x8
    6558:	b0578793          	add	a5,a5,-1275 # 7b05 <__rodata_end+0x12e>
    655c:	00050913          	mv	s2,a0
    6560:	62f50263          	beq	a0,a5,6b84 <main+0x8a4>
    6564:	10a7ea63          	bltu	a5,a0,6678 <main+0x398>
    6568:	000027b7          	lui	a5,0x2
    656c:	8f278793          	add	a5,a5,-1806 # 18f2 <trap_dump_registers+0x2f6>
    6570:	5ef50263          	beq	a0,a5,6b54 <main+0x874>
    6574:	000057b7          	lui	a5,0x5
    6578:	eaf78793          	add	a5,a5,-337 # 4eaf <ee_printf+0x9b>
    657c:	24f51e63          	bne	a0,a5,67d8 <main+0x4f8>
    6580:	00007537          	lui	a0,0x7
    6584:	0000ea37          	lui	s4,0xe
    6588:	00005ab7          	lui	s5,0x5
